	.text
	.def	@feat.00;
	.scl	3;
	.type	0;
	.endef
	.globl	@feat.00
.set @feat.00, 0
	.file	"mandelbrot.cpp"
	.def	main;
	.scl	2;
	.type	32;
	.endef
	.globl	main                            # -- Begin function main
	.p2align	4, 0x90
main:                                   # @main
.Lfunc_begin0:
.seh_proc main
	.seh_handler __CxxFrameHandler3, @unwind, @except
# %bb.0:
	pushq	%rbp
	.seh_pushreg %rbp
	pushq	%r15
	.seh_pushreg %r15
	pushq	%r14
	.seh_pushreg %r14
	pushq	%r13
	.seh_pushreg %r13
	pushq	%r12
	.seh_pushreg %r12
	pushq	%rsi
	.seh_pushreg %rsi
	pushq	%rdi
	.seh_pushreg %rdi
	pushq	%rbx
	.seh_pushreg %rbx
	subq	$280, %rsp                      # imm = 0x118
	.seh_stackalloc 280
	leaq	128(%rsp), %rbp
	.seh_setframe %rbp, 128
	movaps	%xmm6, 128(%rbp)                # 16-byte Spill
	.seh_savexmm %xmm6, 256
	.seh_endprologue
	movq	$-2, 120(%rbp)
	movl	$16000, %r8d                    # imm = 0x3E80
	cmpl	$2, %ecx
	jl	.LBB0_2
# %bb.1:
	movq	8(%rdx), %rcx
	callq	atoi
	movslq	%eax, %r8
.LBB0_2:
	leaq	"?cout@std@@3V?$basic_ostream@DU?$char_traits@D@std@@@1@A"(%rip), %rdx
	leaq	-80(%rbp), %rsi
	movq	%rsi, %rcx
	movq	%r8, %r9
	callq	"??0PortableBinaryBitmap@@QEAA@AEAV?$basic_ostream@DU?$char_traits@D@std@@@std@@_K1@Z"
	movl	numberOfCpuCores(%rip), %eax
	movq	%rax, -32(%rbp)
	xorps	%xmm6, %xmm6
	movaps	%xmm6, 64(%rbp)
	movq	$0, 80(%rbp)
	movq	$0, 96(%rbp)
	testq	%rax, %rax
	je	.LBB0_8
# %bb.3:
	xorl	%ecx, %ecx
	leaq	-32(%rbp), %r14
	leaq	64(%rbp), %r15
	leaq	96(%rbp), %rbx
	jmp	.LBB0_4
	.p2align	4, 0x90
.LBB0_5:                                #   in Loop: Header=BB0_4 Depth=1
	movq	%rsi, (%rdx)
	movq	%rcx, 8(%rdx)
	movq	%rax, 16(%rdx)
	movq	-72(%rbp), %rdi
	shrq	$3, %rdi
	imulq	%rdi, %rcx
	movq	%rcx, 24(%rdx)
	imulq	%rax, %rdi
	movq	%rdi, 32(%rdx)
	addq	$40, 72(%rbp)
.LBB0_7:                                #   in Loop: Header=BB0_4 Depth=1
	movq	96(%rbp), %rcx
	incq	%rcx
	movq	%rcx, 96(%rbp)
	movq	-32(%rbp), %rax
	cmpq	%rax, %rcx
	jae	.LBB0_8
.LBB0_4:                                # =>This Inner Loop Header: Depth=1
	movq	72(%rbp), %rdx
	cmpq	80(%rbp), %rdx
	jne	.LBB0_5
# %bb.6:                                #   in Loop: Header=BB0_4 Depth=1
.Ltmp0:
	movq	%r14, 32(%rsp)
	movq	%r15, %rcx
	movq	%rsi, %r8
	movq	%rbx, %r9
	callq	"??$_Emplace_reallocate@AEAVPortableBinaryBitmap@@AEA_KAEA_K@?$vector@VInterlacedCanvas@PortableBinaryBitmap@@V?$allocator@VInterlacedCanvas@PortableBinaryBitmap@@@std@@@std@@AEAAPEAVInterlacedCanvas@PortableBinaryBitmap@@QEAV23@AEAV3@AEA_K2@Z"
.Ltmp1:
	jmp	.LBB0_7
.LBB0_8:
	movaps	%xmm6, 96(%rbp)
	movq	$0, 112(%rbp)
	movq	64(%rbp), %rdi
	movq	72(%rbp), %r13
	leaq	(%rbp), %rbx
	movabsq	$4607182418800017408, %r14      # imm = 0x3FF0000000000000
	movabsq	$4616189618054758400, %r15      # imm = 0x4010000000000000
	.p2align	4, 0x90
.LBB0_9:                                # =>This Inner Loop Header: Depth=1
	cmpq	%r13, %rdi
	je	.LBB0_10
# %bb.15:                               #   in Loop: Header=BB0_9 Depth=1
	movabsq	$-4613937818241073152, %rax     # imm = 0xBFF8000000000000
	movq	%rax, -32(%rbp)
	movabsq	$-4616189618054758400, %rax     # imm = 0xBFF0000000000000
	movq	%rax, -24(%rbp)
	movabsq	$4602678819172646912, %rax      # imm = 0x3FE0000000000000
	movq	%rax, -16(%rbp)
	movq	%r14, -8(%rbp)
	movq	32(%rdi), %rax
	movq	%rax, 32(%rbx)
	movups	(%rdi), %xmm0
	movups	16(%rdi), %xmm1
	movups	%xmm1, 16(%rbx)
	movups	%xmm0, (%rbx)
	movq	$8, 40(%rbp)
	movq	%r15, 48(%rbp)
	movq	104(%rbp), %rsi
	cmpq	112(%rbp), %rsi
	je	.LBB0_23
# %bb.16:                               #   in Loop: Header=BB0_9 Depth=1
.Ltmp2:
	movl	$88, %ecx
	callq	"??2@YAPEAX_K@Z"
.Ltmp3:
# %bb.17:                               #   in Loop: Header=BB0_9 Depth=1
	movq	48(%rbp), %rcx
	movq	%rcx, 80(%rax)
	movups	32(%rbp), %xmm0
	movups	%xmm0, 64(%rax)
	movups	-32(%rbp), %xmm0
	movups	-16(%rbp), %xmm1
	movups	(%rbp), %xmm2
	movups	16(%rbp), %xmm3
	movups	%xmm3, 48(%rax)
	movups	%xmm2, 32(%rax)
	movups	%xmm1, 16(%rax)
	movups	%xmm0, (%rax)
	leaq	8(%rsi), %r12
.Ltmp4:
	movq	%r12, 40(%rsp)
	movl	$0, 32(%rsp)
	xorl	%ecx, %ecx
	xorl	%edx, %edx
	leaq	"??$_Invoke@V?$tuple@V?$ComplexPlaneCalculator@NV?$MandelbrotFunction@N@@@@@std@@$0A@@thread@std@@CAIPEAX@Z"(%rip), %r8
	movq	%rax, 56(%rbp)                  # 8-byte Spill
	movq	%rax, %r9
	callq	_beginthreadex
.Ltmp5:
# %bb.18:                               #   in Loop: Header=BB0_9 Depth=1
	movq	%rax, (%rsi)
	testq	%rax, %rax
	je	.LBB0_19
# %bb.22:                               #   in Loop: Header=BB0_9 Depth=1
	addq	$16, 104(%rbp)
	addq	$40, %rdi
	jmp	.LBB0_9
	.p2align	4, 0x90
.LBB0_23:                               #   in Loop: Header=BB0_9 Depth=1
.Ltmp8:
	leaq	96(%rbp), %rcx
	movq	%rsi, %rdx
	leaq	-32(%rbp), %r8
	callq	"??$_Emplace_reallocate@V?$ComplexPlaneCalculator@NV?$MandelbrotFunction@N@@@@@?$vector@Vthread@std@@V?$allocator@Vthread@std@@@2@@std@@AEAAPEAVthread@1@QEAV21@$$QEAV?$ComplexPlaneCalculator@NV?$MandelbrotFunction@N@@@@@Z"
.Ltmp9:
# %bb.24:                               #   in Loop: Header=BB0_9 Depth=1
	addq	$40, %rdi
	jmp	.LBB0_9
.LBB0_10:
	movq	96(%rbp), %rdi
	movq	104(%rbp), %rbx
	leaq	-32(%rbp), %r14
	cmpq	%rbx, %rdi
	je	.LBB0_12
	.p2align	4, 0x90
.LBB0_53:                               # =>This Inner Loop Header: Depth=1
	movl	8(%rdi), %esi
	testl	%esi, %esi
	je	.LBB0_54
# %bb.56:                               #   in Loop: Header=BB0_53 Depth=1
.Ltmp10:
	callq	_Thrd_id
.Ltmp11:
# %bb.57:                               #   in Loop: Header=BB0_53 Depth=1
	cmpl	%eax, %esi
	je	.LBB0_58
# %bb.60:                               #   in Loop: Header=BB0_53 Depth=1
	movups	(%rdi), %xmm0
	movaps	%xmm0, -32(%rbp)
.Ltmp12:
	movq	%r14, %rcx
	xorl	%edx, %edx
	callq	_Thrd_join
.Ltmp13:
# %bb.61:                               #   in Loop: Header=BB0_53 Depth=1
	testl	%eax, %eax
	jne	.LBB0_62
# %bb.64:                               #   in Loop: Header=BB0_53 Depth=1
	movq	$0, (%rdi)
	movl	$0, 8(%rdi)
	addq	$16, %rdi
	cmpq	%rbx, %rdi
	jne	.LBB0_53
.LBB0_12:
	movq	96(%rbp), %rcx
	testq	%rcx, %rcx
	je	.LBB0_35
# %bb.13:
	movq	104(%rbp), %rax
	cmpq	%rax, %rcx
	je	.LBB0_28
# %bb.14:
	movq	%rcx, %rdx
	.p2align	4, 0x90
.LBB0_26:                               # =>This Inner Loop Header: Depth=1
	cmpl	$0, 8(%rdx)
	jne	.LBB0_27
# %bb.25:                               #   in Loop: Header=BB0_26 Depth=1
	addq	$16, %rdx
	cmpq	%rax, %rdx
	jne	.LBB0_26
.LBB0_28:
	movq	112(%rbp), %rdx
	subq	%rcx, %rdx
	cmpq	$4096, %rdx                     # imm = 0x1000
	jb	.LBB0_34
# %bb.29:
	movq	-8(%rcx), %rax
	addq	$-8, %rcx
	subq	%rax, %rcx
	cmpq	$32, %rcx
	jae	.LBB0_30
# %bb.33:
	addq	$39, %rdx
	movq	%rax, %rcx
.LBB0_34:
	callq	"??3@YAXPEAX_K@Z"
	xorps	%xmm0, %xmm0
	movaps	%xmm0, 96(%rbp)
	movq	$0, 112(%rbp)
.LBB0_35:
	movq	64(%rbp), %rcx
	testq	%rcx, %rcx
	je	.LBB0_43
# %bb.36:
	movq	80(%rbp), %rdx
	subq	%rcx, %rdx
	cmpq	$4096, %rdx                     # imm = 0x1000
	jb	.LBB0_42
# %bb.37:
	movq	-8(%rcx), %rax
	addq	$-8, %rcx
	subq	%rax, %rcx
	cmpq	$32, %rcx
	jae	.LBB0_38
# %bb.41:
	addq	$39, %rdx
	movq	%rax, %rcx
.LBB0_42:
	callq	"??3@YAXPEAX_K@Z"
	xorps	%xmm0, %xmm0
	movaps	%xmm0, 64(%rbp)
	movq	$0, 80(%rbp)
.LBB0_43:
	movq	-48(%rbp), %r8
	movq	-80(%rbp), %rcx
	movq	-56(%rbp), %rdx
	subq	%rdx, %r8
.Ltmp24:
	callq	"?write@?$basic_ostream@DU?$char_traits@D@std@@@std@@QEAAAEAV12@PEBD_J@Z"
.Ltmp25:
# %bb.44:
	movq	-56(%rbp), %rcx
	testq	%rcx, %rcx
	je	.LBB0_52
# %bb.45:
	movq	-40(%rbp), %rdx
	subq	%rcx, %rdx
	cmpq	$4096, %rdx                     # imm = 0x1000
	jb	.LBB0_51
# %bb.46:
	movq	-8(%rcx), %rax
	addq	$-8, %rcx
	subq	%rax, %rcx
	cmpq	$32, %rcx
	jae	.LBB0_47
# %bb.50:
	addq	$39, %rdx
	movq	%rax, %rcx
.LBB0_51:
	leaq	-56(%rbp), %rsi
	callq	"??3@YAXPEAX_K@Z"
	xorps	%xmm0, %xmm0
	movups	%xmm0, (%rsi)
	movq	$0, 16(%rsi)
.LBB0_52:
	xorl	%eax, %eax
	movaps	128(%rbp), %xmm6                # 16-byte Reload
	addq	$280, %rsp                      # imm = 0x118
	popq	%rbx
	popq	%rdi
	popq	%rsi
	popq	%r12
	popq	%r13
	popq	%r14
	popq	%r15
	popq	%rbp
	retq
.LBB0_62:
.Ltmp14:
	movl	$2, %ecx
	callq	"?_Throw_Cpp_error@std@@YAXH@Z"
.Ltmp15:
# %bb.63:
.LBB0_54:
.Ltmp18:
	movl	$1, %ecx
	callq	"?_Throw_Cpp_error@std@@YAXH@Z"
.Ltmp19:
# %bb.55:
.LBB0_58:
.Ltmp16:
	movl	$5, %ecx
	callq	"?_Throw_Cpp_error@std@@YAXH@Z"
.Ltmp17:
# %bb.59:
.LBB0_19:
	movl	$0, (%r12)
.Ltmp6:
	movl	$6, %ecx
	callq	"?_Throw_Cpp_error@std@@YAXH@Z"
.Ltmp7:
# %bb.20:
.LBB0_27:
	callq	terminate
.LBB0_38:
.Ltmp22:
	callq	_invalid_parameter_noinfo_noreturn
.Ltmp23:
# %bb.39:
.LBB0_47:
.Ltmp26:
	callq	_invalid_parameter_noinfo_noreturn
.Ltmp27:
# %bb.48:
.LBB0_30:
.Ltmp20:
	callq	_invalid_parameter_noinfo_noreturn
.Ltmp21:
# %bb.31:
	int3
	.seh_handlerdata
	.long	($cppxdata$main)@IMGREL
	.text
	.seh_endproc
	.def	"?dtor$21@?0?main@4HA";
	.scl	3;
	.type	32;
	.endef
	.p2align	4, 0x90
"?dtor$21@?0?main@4HA":
.seh_proc "?dtor$21@?0?main@4HA"
.LBB0_21:
	movq	%rdx, 16(%rsp)
	pushq	%rbp
	.seh_pushreg %rbp
	pushq	%r15
	.seh_pushreg %r15
	pushq	%r14
	.seh_pushreg %r14
	pushq	%r13
	.seh_pushreg %r13
	pushq	%r12
	.seh_pushreg %r12
	pushq	%rsi
	.seh_pushreg %rsi
	pushq	%rdi
	.seh_pushreg %rdi
	pushq	%rbx
	.seh_pushreg %rbx
	subq	$72, %rsp
	.seh_stackalloc 72
	leaq	128(%rdx), %rbp
	movaps	%xmm6, 48(%rsp)                 # 16-byte Spill
	.seh_savexmm %xmm6, 48
	.seh_endprologue
	movq	56(%rbp), %rcx                  # 8-byte Reload
	callq	"??3@YAXPEAX@Z"
	movaps	48(%rsp), %xmm6                 # 16-byte Reload
	addq	$72, %rsp
	popq	%rbx
	popq	%rdi
	popq	%rsi
	popq	%r12
	popq	%r13
	popq	%r14
	popq	%r15
	popq	%rbp
	retq                                    # CLEANUPRET
	.seh_handlerdata
	.text
	.seh_endproc
	.def	"?dtor$32@?0?main@4HA";
	.scl	3;
	.type	32;
	.endef
	.p2align	4, 0x90
"?dtor$32@?0?main@4HA":
.seh_proc "?dtor$32@?0?main@4HA"
.LBB0_32:
	movq	%rdx, 16(%rsp)
	pushq	%rbp
	.seh_pushreg %rbp
	pushq	%r15
	.seh_pushreg %r15
	pushq	%r14
	.seh_pushreg %r14
	pushq	%r13
	.seh_pushreg %r13
	pushq	%r12
	.seh_pushreg %r12
	pushq	%rsi
	.seh_pushreg %rsi
	pushq	%rdi
	.seh_pushreg %rdi
	pushq	%rbx
	.seh_pushreg %rbx
	subq	$72, %rsp
	.seh_stackalloc 72
	leaq	128(%rdx), %rbp
	movaps	%xmm6, 48(%rsp)                 # 16-byte Spill
	.seh_savexmm %xmm6, 48
	.seh_endprologue
	callq	__std_terminate
	int3
	.seh_handlerdata
	.text
	.seh_endproc
	.def	"?dtor$40@?0?main@4HA";
	.scl	3;
	.type	32;
	.endef
	.p2align	4, 0x90
"?dtor$40@?0?main@4HA":
.seh_proc "?dtor$40@?0?main@4HA"
.LBB0_40:
	movq	%rdx, 16(%rsp)
	pushq	%rbp
	.seh_pushreg %rbp
	pushq	%r15
	.seh_pushreg %r15
	pushq	%r14
	.seh_pushreg %r14
	pushq	%r13
	.seh_pushreg %r13
	pushq	%r12
	.seh_pushreg %r12
	pushq	%rsi
	.seh_pushreg %rsi
	pushq	%rdi
	.seh_pushreg %rdi
	pushq	%rbx
	.seh_pushreg %rbx
	subq	$72, %rsp
	.seh_stackalloc 72
	leaq	128(%rdx), %rbp
	movaps	%xmm6, 48(%rsp)                 # 16-byte Spill
	.seh_savexmm %xmm6, 48
	.seh_endprologue
	callq	__std_terminate
	int3
	.seh_handlerdata
	.text
	.seh_endproc
	.def	"?dtor$49@?0?main@4HA";
	.scl	3;
	.type	32;
	.endef
	.p2align	4, 0x90
"?dtor$49@?0?main@4HA":
.seh_proc "?dtor$49@?0?main@4HA"
.LBB0_49:
	movq	%rdx, 16(%rsp)
	pushq	%rbp
	.seh_pushreg %rbp
	pushq	%r15
	.seh_pushreg %r15
	pushq	%r14
	.seh_pushreg %r14
	pushq	%r13
	.seh_pushreg %r13
	pushq	%r12
	.seh_pushreg %r12
	pushq	%rsi
	.seh_pushreg %rsi
	pushq	%rdi
	.seh_pushreg %rdi
	pushq	%rbx
	.seh_pushreg %rbx
	subq	$72, %rsp
	.seh_stackalloc 72
	leaq	128(%rdx), %rbp
	movaps	%xmm6, 48(%rsp)                 # 16-byte Spill
	.seh_savexmm %xmm6, 48
	.seh_endprologue
	callq	__std_terminate
	int3
	.seh_handlerdata
	.text
	.seh_endproc
	.def	"?dtor$65@?0?main@4HA";
	.scl	3;
	.type	32;
	.endef
	.p2align	4, 0x90
"?dtor$65@?0?main@4HA":
.seh_proc "?dtor$65@?0?main@4HA"
.LBB0_65:
	movq	%rdx, 16(%rsp)
	pushq	%rbp
	.seh_pushreg %rbp
	pushq	%r15
	.seh_pushreg %r15
	pushq	%r14
	.seh_pushreg %r14
	pushq	%r13
	.seh_pushreg %r13
	pushq	%r12
	.seh_pushreg %r12
	pushq	%rsi
	.seh_pushreg %rsi
	pushq	%rdi
	.seh_pushreg %rdi
	pushq	%rbx
	.seh_pushreg %rbx
	subq	$72, %rsp
	.seh_stackalloc 72
	leaq	128(%rdx), %rbp
	movaps	%xmm6, 48(%rsp)                 # 16-byte Spill
	.seh_savexmm %xmm6, 48
	.seh_endprologue
	leaq	96(%rbp), %rcx
	callq	"??1?$vector@Vthread@std@@V?$allocator@Vthread@std@@@2@@std@@QEAA@XZ"
	leaq	64(%rbp), %rcx
	callq	"??1?$vector@VInterlacedCanvas@PortableBinaryBitmap@@V?$allocator@VInterlacedCanvas@PortableBinaryBitmap@@@std@@@std@@QEAA@XZ"
	leaq	-80(%rbp), %rcx
	callq	"??1PortableBinaryBitmap@@QEAA@XZ"
	movaps	48(%rsp), %xmm6                 # 16-byte Reload
	addq	$72, %rsp
	popq	%rbx
	popq	%rdi
	popq	%rsi
	popq	%r12
	popq	%r13
	popq	%r14
	popq	%r15
	popq	%rbp
	retq                                    # CLEANUPRET
	.seh_handlerdata
	.text
	.seh_endproc
	.def	"?dtor$66@?0?main@4HA";
	.scl	3;
	.type	32;
	.endef
	.p2align	4, 0x90
"?dtor$66@?0?main@4HA":
.seh_proc "?dtor$66@?0?main@4HA"
.LBB0_66:
	movq	%rdx, 16(%rsp)
	pushq	%rbp
	.seh_pushreg %rbp
	pushq	%r15
	.seh_pushreg %r15
	pushq	%r14
	.seh_pushreg %r14
	pushq	%r13
	.seh_pushreg %r13
	pushq	%r12
	.seh_pushreg %r12
	pushq	%rsi
	.seh_pushreg %rsi
	pushq	%rdi
	.seh_pushreg %rdi
	pushq	%rbx
	.seh_pushreg %rbx
	subq	$72, %rsp
	.seh_stackalloc 72
	leaq	128(%rdx), %rbp
	movaps	%xmm6, 48(%rsp)                 # 16-byte Spill
	.seh_savexmm %xmm6, 48
	.seh_endprologue
	callq	__std_terminate
	int3
	.seh_handlerdata
	.text
	.seh_endproc
	.def	"?dtor$67@?0?main@4HA";
	.scl	3;
	.type	32;
	.endef
	.p2align	4, 0x90
"?dtor$67@?0?main@4HA":
.seh_proc "?dtor$67@?0?main@4HA"
.LBB0_67:
	movq	%rdx, 16(%rsp)
	pushq	%rbp
	.seh_pushreg %rbp
	pushq	%r15
	.seh_pushreg %r15
	pushq	%r14
	.seh_pushreg %r14
	pushq	%r13
	.seh_pushreg %r13
	pushq	%r12
	.seh_pushreg %r12
	pushq	%rsi
	.seh_pushreg %rsi
	pushq	%rdi
	.seh_pushreg %rdi
	pushq	%rbx
	.seh_pushreg %rbx
	subq	$72, %rsp
	.seh_stackalloc 72
	leaq	128(%rdx), %rbp
	movaps	%xmm6, 48(%rsp)                 # 16-byte Spill
	.seh_savexmm %xmm6, 48
	.seh_endprologue
	callq	__std_terminate
	int3
.Lfunc_end0:
	.seh_handlerdata
	.text
	.seh_endproc
	.section	.xdata,"dr"
	.p2align	2
$cppxdata$main:
	.long	429065506                       # MagicNumber
	.long	7                               # MaxState
	.long	($stateUnwindMap$main)@IMGREL   # UnwindMap
	.long	0                               # NumTryBlocks
	.long	0                               # TryBlockMap
	.long	12                              # IPMapEntries
	.long	($ip2state$main)@IMGREL         # IPToStateXData
	.long	248                             # UnwindHelp
	.long	0                               # ESTypeList
	.long	1                               # EHFlags
$stateUnwindMap$main:
	.long	-1                              # ToState
	.long	"?dtor$66@?0?main@4HA"@IMGREL   # Action
	.long	-1                              # ToState
	.long	"?dtor$32@?0?main@4HA"@IMGREL   # Action
	.long	-1                              # ToState
	.long	"?dtor$40@?0?main@4HA"@IMGREL   # Action
	.long	-1                              # ToState
	.long	"?dtor$49@?0?main@4HA"@IMGREL   # Action
	.long	-1                              # ToState
	.long	"?dtor$67@?0?main@4HA"@IMGREL   # Action
	.long	-1                              # ToState
	.long	"?dtor$65@?0?main@4HA"@IMGREL   # Action
	.long	5                               # ToState
	.long	"?dtor$21@?0?main@4HA"@IMGREL   # Action
$ip2state$main:
	.long	.Lfunc_begin0@IMGREL            # IP
	.long	-1                              # ToState
	.long	.Ltmp0@IMGREL+1                 # IP
	.long	0                               # ToState
	.long	.Ltmp2@IMGREL+1                 # IP
	.long	5                               # ToState
	.long	.Ltmp4@IMGREL+1                 # IP
	.long	6                               # ToState
	.long	.Ltmp8@IMGREL+1                 # IP
	.long	5                               # ToState
	.long	.Ltmp24@IMGREL+1                # IP
	.long	4                               # ToState
	.long	.Ltmp14@IMGREL+1                # IP
	.long	5                               # ToState
	.long	.Ltmp6@IMGREL+1                 # IP
	.long	6                               # ToState
	.long	.Ltmp22@IMGREL+1                # IP
	.long	2                               # ToState
	.long	.Ltmp26@IMGREL+1                # IP
	.long	3                               # ToState
	.long	.Ltmp20@IMGREL+1                # IP
	.long	1                               # ToState
	.long	.Ltmp21@IMGREL+1                # IP
	.long	-1                              # ToState
	.text
                                        # -- End function
	.def	"??0PortableBinaryBitmap@@QEAA@AEAV?$basic_ostream@DU?$char_traits@D@std@@@std@@_K1@Z";
	.scl	2;
	.type	32;
	.endef
	.section	.text,"xr",discard,"??0PortableBinaryBitmap@@QEAA@AEAV?$basic_ostream@DU?$char_traits@D@std@@@std@@_K1@Z"
	.globl	"??0PortableBinaryBitmap@@QEAA@AEAV?$basic_ostream@DU?$char_traits@D@std@@@std@@_K1@Z" # -- Begin function ??0PortableBinaryBitmap@@QEAA@AEAV?$basic_ostream@DU?$char_traits@D@std@@@std@@_K1@Z
	.p2align	4, 0x90
"??0PortableBinaryBitmap@@QEAA@AEAV?$basic_ostream@DU?$char_traits@D@std@@@std@@_K1@Z": # @"??0PortableBinaryBitmap@@QEAA@AEAV?$basic_ostream@DU?$char_traits@D@std@@@std@@_K1@Z"
.Lfunc_begin1:
.seh_proc "??0PortableBinaryBitmap@@QEAA@AEAV?$basic_ostream@DU?$char_traits@D@std@@@std@@_K1@Z"
	.seh_handler __CxxFrameHandler3, @unwind, @except
# %bb.0:
	pushq	%rbp
	.seh_pushreg %rbp
	pushq	%rsi
	.seh_pushreg %rsi
	pushq	%rdi
	.seh_pushreg %rdi
	pushq	%rbx
	.seh_pushreg %rbx
	subq	$56, %rsp
	.seh_stackalloc 56
	leaq	48(%rsp), %rbp
	.seh_setframe %rbp, 48
	.seh_endprologue
	movq	$-2, (%rbp)
	movq	%rcx, %rsi
	movl	%r8d, %eax
	andl	$7, %eax
	movl	$8, %edi
	subq	%rax, %rdi
	testq	%rax, %rax
	cmoveq	%rax, %rdi
	movq	%rdx, (%rcx)
	addq	%r8, %rdi
	movq	%rdi, 8(%rcx)
	movl	numberOfCpuCores(%rip), %ecx
	movq	%r9, %rax
	xorl	%edx, %edx
	divq	%rcx
	subq	%rdx, %rcx
	testq	%rdx, %rdx
	cmoveq	%rdx, %rcx
	addq	%r9, %rcx
	movq	%rcx, 16(%rsi)
	imulq	%rdi, %rcx
	xorps	%xmm0, %xmm0
	movups	%xmm0, 24(%rsi)
	movq	$0, 40(%rsi)
	cmpq	$8, %rcx
	jb	.LBB1_5
# %bb.1:
	movq	%rcx, %rdi
	shrq	$3, %rdi
	cmpq	$32768, %rcx                    # imm = 0x8000
	jb	.LBB1_3
# %bb.2:
	leaq	39(%rdi), %rcx
	callq	"??2@YAPEAX_K@Z"
	leaq	39(%rax), %rcx
	andq	$-32, %rcx
	movq	%rax, -8(%rcx)
	jmp	.LBB1_4
.LBB1_3:
	movq	%rdi, %rcx
	callq	"??2@YAPEAX_K@Z"
	movq	%rax, %rcx
.LBB1_4:
	movq	%rcx, 24(%rsi)
	movq	%rcx, 32(%rsi)
	leaq	(%rcx,%rdi), %rbx
	movq	%rbx, 40(%rsi)
	xorl	%edx, %edx
	movq	%rdi, %r8
	callq	memset
	movq	%rbx, 32(%rsi)
.LBB1_5:
	leaq	24(%rsi), %rax
	movq	%rax, -8(%rbp)                  # 8-byte Spill
	movq	(%rsi), %rcx
.Ltmp28:
	leaq	"??_C@_02NHCIPLKK@P4?$AA@"(%rip), %rdx
	callq	"??$?6U?$char_traits@D@std@@@std@@YAAEAV?$basic_ostream@DU?$char_traits@D@std@@@0@AEAV10@PEBD@Z"
.Ltmp29:
# %bb.6:
.Ltmp30:
	movq	%rax, %rcx
	movb	$10, %dl
	callq	"??$?6U?$char_traits@D@std@@@std@@YAAEAV?$basic_ostream@DU?$char_traits@D@std@@@0@AEAV10@D@Z"
.Ltmp31:
# %bb.7:
	movq	(%rsi), %rcx
	movq	8(%rsi), %rdx
.Ltmp32:
	callq	"??6?$basic_ostream@DU?$char_traits@D@std@@@std@@QEAAAEAV01@_K@Z"
.Ltmp33:
# %bb.8:
.Ltmp34:
	movq	%rax, %rcx
	movb	$32, %dl
	callq	"??$?6U?$char_traits@D@std@@@std@@YAAEAV?$basic_ostream@DU?$char_traits@D@std@@@0@AEAV10@D@Z"
.Ltmp35:
# %bb.9:
	movq	16(%rsi), %rdx
.Ltmp36:
	movq	%rax, %rcx
	callq	"??6?$basic_ostream@DU?$char_traits@D@std@@@std@@QEAAAEAV01@_K@Z"
.Ltmp37:
# %bb.10:
.Ltmp38:
	movq	%rax, %rcx
	movb	$10, %dl
	callq	"??$?6U?$char_traits@D@std@@@std@@YAAEAV?$basic_ostream@DU?$char_traits@D@std@@@0@AEAV10@D@Z"
.Ltmp39:
# %bb.11:
	movq	%rsi, %rax
	addq	$56, %rsp
	popq	%rbx
	popq	%rdi
	popq	%rsi
	popq	%rbp
	retq
	.seh_handlerdata
	.long	("$cppxdata$??0PortableBinaryBitmap@@QEAA@AEAV?$basic_ostream@DU?$char_traits@D@std@@@std@@_K1@Z")@IMGREL
	.section	.text,"xr",discard,"??0PortableBinaryBitmap@@QEAA@AEAV?$basic_ostream@DU?$char_traits@D@std@@@std@@_K1@Z"
	.seh_endproc
	.def	"?dtor$12@?0???0PortableBinaryBitmap@@QEAA@AEAV?$basic_ostream@DU?$char_traits@D@std@@@std@@_K1@Z@4HA";
	.scl	3;
	.type	32;
	.endef
	.p2align	4, 0x90
"?dtor$12@?0???0PortableBinaryBitmap@@QEAA@AEAV?$basic_ostream@DU?$char_traits@D@std@@@std@@_K1@Z@4HA":
.seh_proc "?dtor$12@?0???0PortableBinaryBitmap@@QEAA@AEAV?$basic_ostream@DU?$char_traits@D@std@@@std@@_K1@Z@4HA"
.LBB1_12:
	movq	%rdx, 16(%rsp)
	pushq	%rbp
	.seh_pushreg %rbp
	pushq	%rsi
	.seh_pushreg %rsi
	pushq	%rdi
	.seh_pushreg %rdi
	pushq	%rbx
	.seh_pushreg %rbx
	subq	$40, %rsp
	.seh_stackalloc 40
	leaq	48(%rdx), %rbp
	.seh_endprologue
	movq	-8(%rbp), %rcx                  # 8-byte Reload
	callq	"??1?$vector@DV?$allocator@D@std@@@std@@QEAA@XZ"
	nop
	addq	$40, %rsp
	popq	%rbx
	popq	%rdi
	popq	%rsi
	popq	%rbp
	retq                                    # CLEANUPRET
.Lfunc_end1:
	.seh_handlerdata
	.section	.text,"xr",discard,"??0PortableBinaryBitmap@@QEAA@AEAV?$basic_ostream@DU?$char_traits@D@std@@@std@@_K1@Z"
	.seh_endproc
	.section	.xdata,"dr",associative,"??0PortableBinaryBitmap@@QEAA@AEAV?$basic_ostream@DU?$char_traits@D@std@@@std@@_K1@Z"
	.p2align	2
"$cppxdata$??0PortableBinaryBitmap@@QEAA@AEAV?$basic_ostream@DU?$char_traits@D@std@@@std@@_K1@Z":
	.long	429065506                       # MagicNumber
	.long	1                               # MaxState
	.long	("$stateUnwindMap$??0PortableBinaryBitmap@@QEAA@AEAV?$basic_ostream@DU?$char_traits@D@std@@@std@@_K1@Z")@IMGREL # UnwindMap
	.long	0                               # NumTryBlocks
	.long	0                               # TryBlockMap
	.long	3                               # IPMapEntries
	.long	("$ip2state$??0PortableBinaryBitmap@@QEAA@AEAV?$basic_ostream@DU?$char_traits@D@std@@@std@@_K1@Z")@IMGREL # IPToStateXData
	.long	48                              # UnwindHelp
	.long	0                               # ESTypeList
	.long	1                               # EHFlags
"$stateUnwindMap$??0PortableBinaryBitmap@@QEAA@AEAV?$basic_ostream@DU?$char_traits@D@std@@@std@@_K1@Z":
	.long	-1                              # ToState
	.long	"?dtor$12@?0???0PortableBinaryBitmap@@QEAA@AEAV?$basic_ostream@DU?$char_traits@D@std@@@std@@_K1@Z@4HA"@IMGREL # Action
"$ip2state$??0PortableBinaryBitmap@@QEAA@AEAV?$basic_ostream@DU?$char_traits@D@std@@@std@@_K1@Z":
	.long	.Lfunc_begin1@IMGREL            # IP
	.long	-1                              # ToState
	.long	.Ltmp28@IMGREL+1                # IP
	.long	0                               # ToState
	.long	.Ltmp39@IMGREL+1                # IP
	.long	-1                              # ToState
	.section	.text,"xr",discard,"??0PortableBinaryBitmap@@QEAA@AEAV?$basic_ostream@DU?$char_traits@D@std@@@std@@_K1@Z"
                                        # -- End function
	.def	"??1?$vector@Vthread@std@@V?$allocator@Vthread@std@@@2@@std@@QEAA@XZ";
	.scl	2;
	.type	32;
	.endef
	.section	.text,"xr",discard,"??1?$vector@Vthread@std@@V?$allocator@Vthread@std@@@2@@std@@QEAA@XZ"
	.globl	"??1?$vector@Vthread@std@@V?$allocator@Vthread@std@@@2@@std@@QEAA@XZ" # -- Begin function ??1?$vector@Vthread@std@@V?$allocator@Vthread@std@@@2@@std@@QEAA@XZ
	.p2align	4, 0x90
"??1?$vector@Vthread@std@@V?$allocator@Vthread@std@@@2@@std@@QEAA@XZ": # @"??1?$vector@Vthread@std@@V?$allocator@Vthread@std@@@2@@std@@QEAA@XZ"
.Lfunc_begin2:
.seh_proc "??1?$vector@Vthread@std@@V?$allocator@Vthread@std@@@2@@std@@QEAA@XZ"
	.seh_handler __CxxFrameHandler3, @unwind, @except
# %bb.0:
	pushq	%rbp
	.seh_pushreg %rbp
	pushq	%rsi
	.seh_pushreg %rsi
	subq	$40, %rsp
	.seh_stackalloc 40
	leaq	32(%rsp), %rbp
	.seh_setframe %rbp, 32
	.seh_endprologue
	movq	$-2, (%rbp)
	movq	%rcx, %rsi
	movq	(%rcx), %rcx
	testq	%rcx, %rcx
	je	.LBB2_13
# %bb.1:
	movq	8(%rsi), %rax
	cmpq	%rax, %rcx
	je	.LBB2_6
# %bb.2:
	movq	%rcx, %rdx
	.p2align	4, 0x90
.LBB2_4:                                # =>This Inner Loop Header: Depth=1
	cmpl	$0, 8(%rdx)
	jne	.LBB2_5
# %bb.3:                                #   in Loop: Header=BB2_4 Depth=1
	addq	$16, %rdx
	cmpq	%rax, %rdx
	jne	.LBB2_4
.LBB2_6:
	movq	16(%rsi), %rdx
	subq	%rcx, %rdx
	cmpq	$4096, %rdx                     # imm = 0x1000
	jb	.LBB2_12
# %bb.7:
	movq	-8(%rcx), %rax
	addq	$-8, %rcx
	subq	%rax, %rcx
	cmpq	$32, %rcx
	jae	.LBB2_8
# %bb.11:
	addq	$39, %rdx
	movq	%rax, %rcx
.LBB2_12:
	callq	"??3@YAXPEAX_K@Z"
	xorps	%xmm0, %xmm0
	movups	%xmm0, (%rsi)
	movq	$0, 16(%rsi)
.LBB2_13:
	addq	$40, %rsp
	popq	%rsi
	popq	%rbp
	retq
.LBB2_5:
	callq	terminate
.LBB2_8:
.Ltmp40:
	callq	_invalid_parameter_noinfo_noreturn
.Ltmp41:
# %bb.9:
	int3
	.seh_handlerdata
	.long	("$cppxdata$??1?$vector@Vthread@std@@V?$allocator@Vthread@std@@@2@@std@@QEAA@XZ")@IMGREL
	.section	.text,"xr",discard,"??1?$vector@Vthread@std@@V?$allocator@Vthread@std@@@2@@std@@QEAA@XZ"
	.seh_endproc
	.def	"?dtor$10@?0???1?$vector@Vthread@std@@V?$allocator@Vthread@std@@@2@@std@@QEAA@XZ@4HA";
	.scl	3;
	.type	32;
	.endef
	.p2align	4, 0x90
"?dtor$10@?0???1?$vector@Vthread@std@@V?$allocator@Vthread@std@@@2@@std@@QEAA@XZ@4HA":
.seh_proc "?dtor$10@?0???1?$vector@Vthread@std@@V?$allocator@Vthread@std@@@2@@std@@QEAA@XZ@4HA"
.LBB2_10:
	movq	%rdx, 16(%rsp)
	pushq	%rbp
	.seh_pushreg %rbp
	pushq	%rsi
	.seh_pushreg %rsi
	subq	$40, %rsp
	.seh_stackalloc 40
	leaq	32(%rdx), %rbp
	.seh_endprologue
	callq	__std_terminate
	int3
.Lfunc_end2:
	.seh_handlerdata
	.section	.text,"xr",discard,"??1?$vector@Vthread@std@@V?$allocator@Vthread@std@@@2@@std@@QEAA@XZ"
	.seh_endproc
	.section	.xdata,"dr",associative,"??1?$vector@Vthread@std@@V?$allocator@Vthread@std@@@2@@std@@QEAA@XZ"
	.p2align	2
"$cppxdata$??1?$vector@Vthread@std@@V?$allocator@Vthread@std@@@2@@std@@QEAA@XZ":
	.long	429065506                       # MagicNumber
	.long	1                               # MaxState
	.long	("$stateUnwindMap$??1?$vector@Vthread@std@@V?$allocator@Vthread@std@@@2@@std@@QEAA@XZ")@IMGREL # UnwindMap
	.long	0                               # NumTryBlocks
	.long	0                               # TryBlockMap
	.long	3                               # IPMapEntries
	.long	("$ip2state$??1?$vector@Vthread@std@@V?$allocator@Vthread@std@@@2@@std@@QEAA@XZ")@IMGREL # IPToStateXData
	.long	32                              # UnwindHelp
	.long	0                               # ESTypeList
	.long	1                               # EHFlags
"$stateUnwindMap$??1?$vector@Vthread@std@@V?$allocator@Vthread@std@@@2@@std@@QEAA@XZ":
	.long	-1                              # ToState
	.long	"?dtor$10@?0???1?$vector@Vthread@std@@V?$allocator@Vthread@std@@@2@@std@@QEAA@XZ@4HA"@IMGREL # Action
"$ip2state$??1?$vector@Vthread@std@@V?$allocator@Vthread@std@@@2@@std@@QEAA@XZ":
	.long	.Lfunc_begin2@IMGREL            # IP
	.long	-1                              # ToState
	.long	.Ltmp40@IMGREL+1                # IP
	.long	0                               # ToState
	.long	.Ltmp41@IMGREL+1                # IP
	.long	-1                              # ToState
	.section	.text,"xr",discard,"??1?$vector@Vthread@std@@V?$allocator@Vthread@std@@@2@@std@@QEAA@XZ"
                                        # -- End function
	.def	"??1?$vector@VInterlacedCanvas@PortableBinaryBitmap@@V?$allocator@VInterlacedCanvas@PortableBinaryBitmap@@@std@@@std@@QEAA@XZ";
	.scl	2;
	.type	32;
	.endef
	.section	.text,"xr",discard,"??1?$vector@VInterlacedCanvas@PortableBinaryBitmap@@V?$allocator@VInterlacedCanvas@PortableBinaryBitmap@@@std@@@std@@QEAA@XZ"
	.globl	"??1?$vector@VInterlacedCanvas@PortableBinaryBitmap@@V?$allocator@VInterlacedCanvas@PortableBinaryBitmap@@@std@@@std@@QEAA@XZ" # -- Begin function ??1?$vector@VInterlacedCanvas@PortableBinaryBitmap@@V?$allocator@VInterlacedCanvas@PortableBinaryBitmap@@@std@@@std@@QEAA@XZ
	.p2align	4, 0x90
"??1?$vector@VInterlacedCanvas@PortableBinaryBitmap@@V?$allocator@VInterlacedCanvas@PortableBinaryBitmap@@@std@@@std@@QEAA@XZ": # @"??1?$vector@VInterlacedCanvas@PortableBinaryBitmap@@V?$allocator@VInterlacedCanvas@PortableBinaryBitmap@@@std@@@std@@QEAA@XZ"
.Lfunc_begin3:
.seh_proc "??1?$vector@VInterlacedCanvas@PortableBinaryBitmap@@V?$allocator@VInterlacedCanvas@PortableBinaryBitmap@@@std@@@std@@QEAA@XZ"
	.seh_handler __CxxFrameHandler3, @unwind, @except
# %bb.0:
	pushq	%rbp
	.seh_pushreg %rbp
	pushq	%rsi
	.seh_pushreg %rsi
	subq	$40, %rsp
	.seh_stackalloc 40
	leaq	32(%rsp), %rbp
	.seh_setframe %rbp, 32
	.seh_endprologue
	movq	$-2, (%rbp)
	movq	%rcx, %rsi
	movq	(%rcx), %rcx
	testq	%rcx, %rcx
	je	.LBB3_8
# %bb.1:
	movq	16(%rsi), %rdx
	subq	%rcx, %rdx
	cmpq	$4096, %rdx                     # imm = 0x1000
	jb	.LBB3_7
# %bb.2:
	movq	-8(%rcx), %rax
	addq	$-8, %rcx
	subq	%rax, %rcx
	cmpq	$32, %rcx
	jae	.LBB3_3
# %bb.6:
	addq	$39, %rdx
	movq	%rax, %rcx
.LBB3_7:
	callq	"??3@YAXPEAX_K@Z"
	xorps	%xmm0, %xmm0
	movups	%xmm0, (%rsi)
	movq	$0, 16(%rsi)
.LBB3_8:
	addq	$40, %rsp
	popq	%rsi
	popq	%rbp
	retq
.LBB3_3:
.Ltmp42:
	callq	_invalid_parameter_noinfo_noreturn
.Ltmp43:
# %bb.4:
	int3
	.seh_handlerdata
	.long	("$cppxdata$??1?$vector@VInterlacedCanvas@PortableBinaryBitmap@@V?$allocator@VInterlacedCanvas@PortableBinaryBitmap@@@std@@@std@@QEAA@XZ")@IMGREL
	.section	.text,"xr",discard,"??1?$vector@VInterlacedCanvas@PortableBinaryBitmap@@V?$allocator@VInterlacedCanvas@PortableBinaryBitmap@@@std@@@std@@QEAA@XZ"
	.seh_endproc
	.def	"?dtor$5@?0???1?$vector@VInterlacedCanvas@PortableBinaryBitmap@@V?$allocator@VInterlacedCanvas@PortableBinaryBitmap@@@std@@@std@@QEAA@XZ@4HA";
	.scl	3;
	.type	32;
	.endef
	.p2align	4, 0x90
"?dtor$5@?0???1?$vector@VInterlacedCanvas@PortableBinaryBitmap@@V?$allocator@VInterlacedCanvas@PortableBinaryBitmap@@@std@@@std@@QEAA@XZ@4HA":
.seh_proc "?dtor$5@?0???1?$vector@VInterlacedCanvas@PortableBinaryBitmap@@V?$allocator@VInterlacedCanvas@PortableBinaryBitmap@@@std@@@std@@QEAA@XZ@4HA"
.LBB3_5:
	movq	%rdx, 16(%rsp)
	pushq	%rbp
	.seh_pushreg %rbp
	pushq	%rsi
	.seh_pushreg %rsi
	subq	$40, %rsp
	.seh_stackalloc 40
	leaq	32(%rdx), %rbp
	.seh_endprologue
	callq	__std_terminate
	int3
.Lfunc_end3:
	.seh_handlerdata
	.section	.text,"xr",discard,"??1?$vector@VInterlacedCanvas@PortableBinaryBitmap@@V?$allocator@VInterlacedCanvas@PortableBinaryBitmap@@@std@@@std@@QEAA@XZ"
	.seh_endproc
	.section	.xdata,"dr",associative,"??1?$vector@VInterlacedCanvas@PortableBinaryBitmap@@V?$allocator@VInterlacedCanvas@PortableBinaryBitmap@@@std@@@std@@QEAA@XZ"
	.p2align	2
"$cppxdata$??1?$vector@VInterlacedCanvas@PortableBinaryBitmap@@V?$allocator@VInterlacedCanvas@PortableBinaryBitmap@@@std@@@std@@QEAA@XZ":
	.long	429065506                       # MagicNumber
	.long	1                               # MaxState
	.long	("$stateUnwindMap$??1?$vector@VInterlacedCanvas@PortableBinaryBitmap@@V?$allocator@VInterlacedCanvas@PortableBinaryBitmap@@@std@@@std@@QEAA@XZ")@IMGREL # UnwindMap
	.long	0                               # NumTryBlocks
	.long	0                               # TryBlockMap
	.long	3                               # IPMapEntries
	.long	("$ip2state$??1?$vector@VInterlacedCanvas@PortableBinaryBitmap@@V?$allocator@VInterlacedCanvas@PortableBinaryBitmap@@@std@@@std@@QEAA@XZ")@IMGREL # IPToStateXData
	.long	32                              # UnwindHelp
	.long	0                               # ESTypeList
	.long	1                               # EHFlags
"$stateUnwindMap$??1?$vector@VInterlacedCanvas@PortableBinaryBitmap@@V?$allocator@VInterlacedCanvas@PortableBinaryBitmap@@@std@@@std@@QEAA@XZ":
	.long	-1                              # ToState
	.long	"?dtor$5@?0???1?$vector@VInterlacedCanvas@PortableBinaryBitmap@@V?$allocator@VInterlacedCanvas@PortableBinaryBitmap@@@std@@@std@@QEAA@XZ@4HA"@IMGREL # Action
"$ip2state$??1?$vector@VInterlacedCanvas@PortableBinaryBitmap@@V?$allocator@VInterlacedCanvas@PortableBinaryBitmap@@@std@@@std@@QEAA@XZ":
	.long	.Lfunc_begin3@IMGREL            # IP
	.long	-1                              # ToState
	.long	.Ltmp42@IMGREL+1                # IP
	.long	0                               # ToState
	.long	.Ltmp43@IMGREL+1                # IP
	.long	-1                              # ToState
	.section	.text,"xr",discard,"??1?$vector@VInterlacedCanvas@PortableBinaryBitmap@@V?$allocator@VInterlacedCanvas@PortableBinaryBitmap@@@std@@@std@@QEAA@XZ"
                                        # -- End function
	.def	"??1PortableBinaryBitmap@@QEAA@XZ";
	.scl	2;
	.type	32;
	.endef
	.section	.text,"xr",discard,"??1PortableBinaryBitmap@@QEAA@XZ"
	.globl	"??1PortableBinaryBitmap@@QEAA@XZ" # -- Begin function ??1PortableBinaryBitmap@@QEAA@XZ
	.p2align	4, 0x90
"??1PortableBinaryBitmap@@QEAA@XZ":     # @"??1PortableBinaryBitmap@@QEAA@XZ"
.Lfunc_begin4:
.seh_proc "??1PortableBinaryBitmap@@QEAA@XZ"
	.seh_handler __CxxFrameHandler3, @unwind, @except
# %bb.0:
	pushq	%rbp
	.seh_pushreg %rbp
	pushq	%rsi
	.seh_pushreg %rsi
	pushq	%rdi
	.seh_pushreg %rdi
	subq	$48, %rsp
	.seh_stackalloc 48
	leaq	48(%rsp), %rbp
	.seh_setframe %rbp, 48
	.seh_endprologue
	movq	$-2, -8(%rbp)
	movq	%rcx, %rsi
	movq	32(%rcx), %r8
	movq	(%rcx), %rcx
	movq	24(%rsi), %rdx
	subq	%rdx, %r8
.Ltmp44:
	callq	"?write@?$basic_ostream@DU?$char_traits@D@std@@@std@@QEAAAEAV12@PEBD_J@Z"
.Ltmp45:
# %bb.1:
	leaq	24(%rsi), %rdi
	movq	(%rdi), %rcx
	testq	%rcx, %rcx
	je	.LBB4_9
# %bb.2:
	movq	40(%rsi), %rdx
	subq	%rcx, %rdx
	cmpq	$4096, %rdx                     # imm = 0x1000
	jb	.LBB4_8
# %bb.3:
	movq	-8(%rcx), %rax
	addq	$-8, %rcx
	subq	%rax, %rcx
	cmpq	$32, %rcx
	jae	.LBB4_4
# %bb.7:
	addq	$39, %rdx
	movq	%rax, %rcx
.LBB4_8:
	callq	"??3@YAXPEAX_K@Z"
	xorps	%xmm0, %xmm0
	movups	%xmm0, (%rdi)
	movq	$0, 16(%rdi)
.LBB4_9:
	addq	$48, %rsp
	popq	%rdi
	popq	%rsi
	popq	%rbp
	retq
.LBB4_4:
.Ltmp46:
	callq	_invalid_parameter_noinfo_noreturn
.Ltmp47:
# %bb.5:
	int3
	.seh_handlerdata
	.long	("$cppxdata$??1PortableBinaryBitmap@@QEAA@XZ")@IMGREL
	.section	.text,"xr",discard,"??1PortableBinaryBitmap@@QEAA@XZ"
	.seh_endproc
	.def	"?dtor$6@?0???1PortableBinaryBitmap@@QEAA@XZ@4HA";
	.scl	3;
	.type	32;
	.endef
	.p2align	4, 0x90
"?dtor$6@?0???1PortableBinaryBitmap@@QEAA@XZ@4HA":
.seh_proc "?dtor$6@?0???1PortableBinaryBitmap@@QEAA@XZ@4HA"
.LBB4_6:
	movq	%rdx, 16(%rsp)
	pushq	%rbp
	.seh_pushreg %rbp
	pushq	%rsi
	.seh_pushreg %rsi
	pushq	%rdi
	.seh_pushreg %rdi
	subq	$32, %rsp
	.seh_stackalloc 32
	leaq	48(%rdx), %rbp
	.seh_endprologue
	callq	__std_terminate
	int3
	.seh_handlerdata
	.section	.text,"xr",discard,"??1PortableBinaryBitmap@@QEAA@XZ"
	.seh_endproc
	.def	"?dtor$10@?0???1PortableBinaryBitmap@@QEAA@XZ@4HA";
	.scl	3;
	.type	32;
	.endef
	.p2align	4, 0x90
"?dtor$10@?0???1PortableBinaryBitmap@@QEAA@XZ@4HA":
.seh_proc "?dtor$10@?0???1PortableBinaryBitmap@@QEAA@XZ@4HA"
.LBB4_10:
	movq	%rdx, 16(%rsp)
	pushq	%rbp
	.seh_pushreg %rbp
	pushq	%rsi
	.seh_pushreg %rsi
	pushq	%rdi
	.seh_pushreg %rdi
	subq	$32, %rsp
	.seh_stackalloc 32
	leaq	48(%rdx), %rbp
	.seh_endprologue
	callq	__std_terminate
	int3
.Lfunc_end4:
	.seh_handlerdata
	.section	.text,"xr",discard,"??1PortableBinaryBitmap@@QEAA@XZ"
	.seh_endproc
	.section	.xdata,"dr",associative,"??1PortableBinaryBitmap@@QEAA@XZ"
	.p2align	2
"$cppxdata$??1PortableBinaryBitmap@@QEAA@XZ":
	.long	429065506                       # MagicNumber
	.long	2                               # MaxState
	.long	("$stateUnwindMap$??1PortableBinaryBitmap@@QEAA@XZ")@IMGREL # UnwindMap
	.long	0                               # NumTryBlocks
	.long	0                               # TryBlockMap
	.long	4                               # IPMapEntries
	.long	("$ip2state$??1PortableBinaryBitmap@@QEAA@XZ")@IMGREL # IPToStateXData
	.long	40                              # UnwindHelp
	.long	0                               # ESTypeList
	.long	1                               # EHFlags
"$stateUnwindMap$??1PortableBinaryBitmap@@QEAA@XZ":
	.long	-1                              # ToState
	.long	"?dtor$6@?0???1PortableBinaryBitmap@@QEAA@XZ@4HA"@IMGREL # Action
	.long	-1                              # ToState
	.long	"?dtor$10@?0???1PortableBinaryBitmap@@QEAA@XZ@4HA"@IMGREL # Action
"$ip2state$??1PortableBinaryBitmap@@QEAA@XZ":
	.long	.Lfunc_begin4@IMGREL            # IP
	.long	-1                              # ToState
	.long	.Ltmp44@IMGREL+1                # IP
	.long	1                               # ToState
	.long	.Ltmp46@IMGREL+1                # IP
	.long	0                               # ToState
	.long	.Ltmp47@IMGREL+1                # IP
	.long	-1                              # ToState
	.section	.text,"xr",discard,"??1PortableBinaryBitmap@@QEAA@XZ"
                                        # -- End function
	.def	"??$?6U?$char_traits@D@std@@@std@@YAAEAV?$basic_ostream@DU?$char_traits@D@std@@@0@AEAV10@D@Z";
	.scl	2;
	.type	32;
	.endef
	.section	.text,"xr",discard,"??$?6U?$char_traits@D@std@@@std@@YAAEAV?$basic_ostream@DU?$char_traits@D@std@@@0@AEAV10@D@Z"
	.globl	"??$?6U?$char_traits@D@std@@@std@@YAAEAV?$basic_ostream@DU?$char_traits@D@std@@@0@AEAV10@D@Z" # -- Begin function ??$?6U?$char_traits@D@std@@@std@@YAAEAV?$basic_ostream@DU?$char_traits@D@std@@@0@AEAV10@D@Z
	.p2align	4, 0x90
"??$?6U?$char_traits@D@std@@@std@@YAAEAV?$basic_ostream@DU?$char_traits@D@std@@@0@AEAV10@D@Z": # @"??$?6U?$char_traits@D@std@@@std@@YAAEAV?$basic_ostream@DU?$char_traits@D@std@@@0@AEAV10@D@Z"
.Lfunc_begin5:
.seh_proc "??$?6U?$char_traits@D@std@@@std@@YAAEAV?$basic_ostream@DU?$char_traits@D@std@@@0@AEAV10@D@Z"
	.seh_handler __CxxFrameHandler3, @unwind, @except
# %bb.0:
	pushq	%rbp
	.seh_pushreg %rbp
	pushq	%r15
	.seh_pushreg %r15
	pushq	%r14
	.seh_pushreg %r14
	pushq	%rsi
	.seh_pushreg %rsi
	pushq	%rdi
	.seh_pushreg %rdi
	pushq	%rbx
	.seh_pushreg %rbx
	subq	$152, %rsp
	.seh_stackalloc 152
	leaq	128(%rsp), %rbp
	.seh_setframe %rbp, 128
	.seh_endprologue
	movq	$-2, 16(%rbp)
	movl	%edx, %r14d
	movq	%rcx, %rsi
	movq	%rcx, -8(%rbp)
	movq	(%rcx), %rax
	movslq	4(%rax), %rax
	movq	72(%rcx,%rax), %rcx
	testq	%rcx, %rcx
	je	.LBB5_2
# %bb.1:
	movq	(%rcx), %rax
	callq	*8(%rax)
.LBB5_2:
	movq	(%rsi), %rax
	movslq	4(%rax), %rax
	cmpl	$0, 16(%rsi,%rax)
	je	.LBB5_4
# %bb.3:
	movb	$0, (%rbp)
	jmp	.LBB5_9
.LBB5_4:
	movq	80(%rsi,%rax), %rcx
	testq	%rcx, %rcx
	je	.LBB5_6
# %bb.5:
	cmpq	%rsi, %rcx
	je	.LBB5_6
# %bb.7:
.Ltmp48:
	callq	"?flush@?$basic_ostream@DU?$char_traits@D@std@@@std@@QEAAAEAV12@XZ"
.Ltmp49:
# %bb.8:
	movq	(%rsi), %rax
	movslq	4(%rax), %rax
	cmpl	$0, 16(%rsi,%rax)
	sete	(%rbp)
	jmp	.LBB5_9
.LBB5_6:
	movb	$1, (%rbp)
.LBB5_9:
	cmpb	$0, (%rbp)
	movq	%rsi, 8(%rbp)                   # 8-byte Spill
	je	.LBB5_10
# %bb.14:
	movq	(%rsi), %rax
	movslq	4(%rax), %rax
	movq	40(%rsi,%rax), %rcx
	leaq	-1(%rcx), %rdx
	xorl	%ebx, %ebx
	cmpq	$2, %rcx
	movl	$0, %r15d
	cmovgeq	%rdx, %r15
	movl	$448, %ecx                      # imm = 0x1C0
	andl	24(%rsi,%rax), %ecx
	cmpl	$64, %ecx
	jne	.LBB5_15
.LBB5_23:
	testl	%ebx, %ebx
	jne	.LBB5_29
# %bb.24:
	movq	8(%rbp), %rcx                   # 8-byte Reload
	movq	(%rcx), %rax
	movslq	4(%rax), %rax
	movq	72(%rcx,%rax), %rcx
	movq	64(%rcx), %rax
	movq	(%rax), %rdx
	testq	%rdx, %rdx
	je	.LBB5_27
# %bb.25:
	movq	88(%rcx), %rbx
	movl	(%rbx), %edi
	testl	%edi, %edi
	jle	.LBB5_27
# %bb.26:
	decl	%edi
	movl	%edi, (%rbx)
	leaq	1(%rdx), %rcx
	movq	%rcx, (%rax)
	movb	%r14b, (%rdx)
	movzbl	%r14b, %eax
	jmp	.LBB5_28
.LBB5_10:
	xorl	%eax, %eax
	movq	%rax, -16(%rbp)                 # 8-byte Spill
.LBB5_11:                               # Block address taken
$ehgcr_5_11:
	movq	8(%rbp), %rsi                   # 8-byte Reload
	movq	(%rsi), %rax
	movslq	4(%rax), %rax
	movq	$0, 40(%rsi,%rax)
	movq	(%rsi), %rax
	movslq	4(%rax), %rax
	movq	-16(%rbp), %rdx                 # 8-byte Reload
	orl	16(%rsi,%rax), %edx
	xorl	%ecx, %ecx
	cmpq	$0, 72(%rsi,%rax)
	sete	%cl
	shll	$2, %ecx
	andl	$23, %edx
	orl	%ecx, %edx
	movl	%edx, 16(%rsi,%rax)
	andl	20(%rsi,%rax), %edx
	jne	.LBB5_12
# %bb.39:
	callq	"?uncaught_exception@std@@YA_NXZ"
	testb	%al, %al
	jne	.LBB5_41
# %bb.40:
	movq	-8(%rbp), %rcx
.Ltmp62:
	callq	"?_Osfx@?$basic_ostream@DU?$char_traits@D@std@@@std@@QEAAXXZ"
.Ltmp63:
.LBB5_41:
	movq	-8(%rbp), %rax
	movq	(%rax), %rcx
	movslq	4(%rcx), %rcx
	movq	72(%rax,%rcx), %rcx
	testq	%rcx, %rcx
	je	.LBB5_43
# %bb.42:
	movq	(%rcx), %rax
.Ltmp64:
	callq	*16(%rax)
.Ltmp65:
.LBB5_43:
	movq	%rsi, %rax
	addq	$152, %rsp
	popq	%rbx
	popq	%rdi
	popq	%rsi
	popq	%r14
	popq	%r15
	popq	%rbp
	retq
.LBB5_15:
	xorl	%ebx, %ebx
	jmp	.LBB5_16
	.p2align	4, 0x90
.LBB5_20:                               #   in Loop: Header=BB5_16 Depth=1
	decl	%esi
	movl	%esi, (%r8)
	leaq	1(%rdi), %rcx
	movq	%rcx, (%rbx)
	movb	%dl, (%rdi)
.LBB5_22:                               #   in Loop: Header=BB5_16 Depth=1
	xorl	%ebx, %ebx
	cmpl	$-1, %eax
	sete	%bl
	shll	$2, %ebx
	decq	%r15
.LBB5_16:                               # =>This Inner Loop Header: Depth=1
	testl	%ebx, %ebx
	jne	.LBB5_23
# %bb.17:                               #   in Loop: Header=BB5_16 Depth=1
	testq	%r15, %r15
	jle	.LBB5_23
# %bb.18:                               #   in Loop: Header=BB5_16 Depth=1
	movq	8(%rbp), %rdx                   # 8-byte Reload
	movq	(%rdx), %rax
	movslq	4(%rax), %rax
	movq	72(%rdx,%rax), %rcx
	movzbl	88(%rdx,%rax), %edx
	movzbl	%dl, %eax
	movq	64(%rcx), %rbx
	movq	(%rbx), %rdi
	testq	%rdi, %rdi
	je	.LBB5_21
# %bb.19:                               #   in Loop: Header=BB5_16 Depth=1
	movq	88(%rcx), %r8
	movl	(%r8), %esi
	testl	%esi, %esi
	jg	.LBB5_20
.LBB5_21:                               #   in Loop: Header=BB5_16 Depth=1
	movq	(%rcx), %rbx
.Ltmp50:
	movl	%eax, %edx
	callq	*24(%rbx)
.Ltmp51:
	jmp	.LBB5_22
.LBB5_27:
	movzbl	%r14b, %edx
	movq	(%rcx), %rax
.Ltmp52:
	callq	*24(%rax)
.Ltmp53:
.LBB5_28:
	xorl	%ebx, %ebx
	cmpl	$-1, %eax
	sete	%bl
	shll	$2, %ebx
	jmp	.LBB5_29
	.p2align	4, 0x90
.LBB5_33:                               #   in Loop: Header=BB5_29 Depth=1
	decl	%esi
	movl	%esi, (%r8)
	leaq	1(%rdi), %rcx
	movq	%rcx, (%rbx)
	movb	%dl, (%rdi)
.LBB5_35:                               #   in Loop: Header=BB5_29 Depth=1
	xorl	%ebx, %ebx
	cmpl	$-1, %eax
	sete	%bl
	shll	$2, %ebx
	decq	%r15
.LBB5_29:                               # =>This Inner Loop Header: Depth=1
	movq	%rbx, -16(%rbp)                 # 8-byte Spill
	testl	%ebx, %ebx
	jne	.LBB5_11
# %bb.30:                               #   in Loop: Header=BB5_29 Depth=1
	testq	%r15, %r15
	jle	.LBB5_11
# %bb.31:                               #   in Loop: Header=BB5_29 Depth=1
	movq	8(%rbp), %rdx                   # 8-byte Reload
	movq	(%rdx), %rax
	movslq	4(%rax), %rax
	movq	72(%rdx,%rax), %rcx
	movzbl	88(%rdx,%rax), %edx
	movzbl	%dl, %eax
	movq	64(%rcx), %rbx
	movq	(%rbx), %rdi
	testq	%rdi, %rdi
	je	.LBB5_34
# %bb.32:                               #   in Loop: Header=BB5_29 Depth=1
	movq	88(%rcx), %r8
	movl	(%r8), %esi
	testl	%esi, %esi
	jg	.LBB5_33
.LBB5_34:                               #   in Loop: Header=BB5_29 Depth=1
	movq	(%rcx), %rbx
.Ltmp54:
	movl	%eax, %edx
	callq	*24(%rbx)
.Ltmp55:
	jmp	.LBB5_35
.LBB5_12:
	testb	$2, %dl
	leaq	"??_C@_0BF@OOHOMBOF@ios_base?3?3eofbit?5set?$AA@"(%rip), %rax
	leaq	"??_C@_0BG@FMKFHCIL@ios_base?3?3failbit?5set?$AA@"(%rip), %rcx
	cmoveq	%rax, %rcx
	testb	$4, %dl
	leaq	"??_C@_0BF@PHHKMMFD@ios_base?3?3badbit?5set?$AA@"(%rip), %rsi
	cmoveq	%rcx, %rsi
	leaq	-48(%rbp), %rcx
	movl	$1, %edx
	callq	"?make_error_code@std@@YA?AVerror_code@1@W4io_errc@1@@Z"
	movups	-48(%rbp), %xmm0
	movaps	%xmm0, -32(%rbp)
.Ltmp58:
	leaq	-88(%rbp), %rcx
	leaq	-32(%rbp), %rdx
	movq	%rsi, %r8
	callq	"??0system_error@std@@QEAA@Verror_code@1@PEBD@Z"
.Ltmp59:
# %bb.13:
	leaq	"??_7failure@ios_base@std@@6B@"(%rip), %rax
	movq	%rax, -88(%rbp)
.Ltmp60:
	leaq	"_TI5?AVfailure@ios_base@std@@"(%rip), %rdx
	leaq	-88(%rbp), %rcx
	callq	_CxxThrowException
.Ltmp61:
# %bb.38:
	int3
	.seh_handlerdata
	.long	("$cppxdata$??$?6U?$char_traits@D@std@@@std@@YAAEAV?$basic_ostream@DU?$char_traits@D@std@@@0@AEAV10@D@Z")@IMGREL
	.section	.text,"xr",discard,"??$?6U?$char_traits@D@std@@@std@@YAAEAV?$basic_ostream@DU?$char_traits@D@std@@@0@AEAV10@D@Z"
	.seh_endproc
	.def	"?catch$36@?0???$?6U?$char_traits@D@std@@@std@@YAAEAV?$basic_ostream@DU?$char_traits@D@std@@@0@AEAV10@D@Z@4HA";
	.scl	3;
	.type	32;
	.endef
	.p2align	4, 0x90
"?catch$36@?0???$?6U?$char_traits@D@std@@@std@@YAAEAV?$basic_ostream@DU?$char_traits@D@std@@@0@AEAV10@D@Z@4HA":
.seh_proc "?catch$36@?0???$?6U?$char_traits@D@std@@@std@@YAAEAV?$basic_ostream@DU?$char_traits@D@std@@@0@AEAV10@D@Z@4HA"
	.seh_handler __CxxFrameHandler3, @unwind, @except
.LBB5_36:
	movq	%rdx, 16(%rsp)
	pushq	%rbp
	.seh_pushreg %rbp
	pushq	%r15
	.seh_pushreg %r15
	pushq	%r14
	.seh_pushreg %r14
	pushq	%rsi
	.seh_pushreg %rsi
	pushq	%rdi
	.seh_pushreg %rdi
	pushq	%rbx
	.seh_pushreg %rbx
	subq	$40, %rsp
	.seh_stackalloc 40
	leaq	128(%rdx), %rbp
	.seh_endprologue
	movq	8(%rbp), %rdx                   # 8-byte Reload
	movq	(%rdx), %rax
	movslq	4(%rax), %rcx
	addq	%rdx, %rcx
.Ltmp56:
	movl	$4, %edx
	movb	$1, %r8b
	callq	"?setstate@?$basic_ios@DU?$char_traits@D@std@@@std@@QEAAXH_N@Z"
.Ltmp57:
# %bb.37:
	xorl	%eax, %eax
	movq	%rax, -16(%rbp)                 # 8-byte Spill
	leaq	.LBB5_11(%rip), %rax
	addq	$40, %rsp
	popq	%rbx
	popq	%rdi
	popq	%rsi
	popq	%r14
	popq	%r15
	popq	%rbp
	retq                                    # CATCHRET
	.seh_handlerdata
	.long	("$cppxdata$??$?6U?$char_traits@D@std@@@std@@YAAEAV?$basic_ostream@DU?$char_traits@D@std@@@0@AEAV10@D@Z")@IMGREL
	.section	.text,"xr",discard,"??$?6U?$char_traits@D@std@@@std@@YAAEAV?$basic_ostream@DU?$char_traits@D@std@@@0@AEAV10@D@Z"
	.seh_endproc
	.def	"?dtor$44@?0???$?6U?$char_traits@D@std@@@std@@YAAEAV?$basic_ostream@DU?$char_traits@D@std@@@0@AEAV10@D@Z@4HA";
	.scl	3;
	.type	32;
	.endef
	.p2align	4, 0x90
"?dtor$44@?0???$?6U?$char_traits@D@std@@@std@@YAAEAV?$basic_ostream@DU?$char_traits@D@std@@@0@AEAV10@D@Z@4HA":
.seh_proc "?dtor$44@?0???$?6U?$char_traits@D@std@@@std@@YAAEAV?$basic_ostream@DU?$char_traits@D@std@@@0@AEAV10@D@Z@4HA"
.LBB5_44:
	movq	%rdx, 16(%rsp)
	pushq	%rbp
	.seh_pushreg %rbp
	pushq	%r15
	.seh_pushreg %r15
	pushq	%r14
	.seh_pushreg %r14
	pushq	%rsi
	.seh_pushreg %rsi
	pushq	%rdi
	.seh_pushreg %rdi
	pushq	%rbx
	.seh_pushreg %rbx
	subq	$40, %rsp
	.seh_stackalloc 40
	leaq	128(%rdx), %rbp
	.seh_endprologue
	callq	__std_terminate
	int3
	.seh_handlerdata
	.section	.text,"xr",discard,"??$?6U?$char_traits@D@std@@@std@@YAAEAV?$basic_ostream@DU?$char_traits@D@std@@@0@AEAV10@D@Z"
	.seh_endproc
	.def	"?dtor$45@?0???$?6U?$char_traits@D@std@@@std@@YAAEAV?$basic_ostream@DU?$char_traits@D@std@@@0@AEAV10@D@Z@4HA";
	.scl	3;
	.type	32;
	.endef
	.p2align	4, 0x90
"?dtor$45@?0???$?6U?$char_traits@D@std@@@std@@YAAEAV?$basic_ostream@DU?$char_traits@D@std@@@0@AEAV10@D@Z@4HA":
.seh_proc "?dtor$45@?0???$?6U?$char_traits@D@std@@@std@@YAAEAV?$basic_ostream@DU?$char_traits@D@std@@@0@AEAV10@D@Z@4HA"
.LBB5_45:
	movq	%rdx, 16(%rsp)
	pushq	%rbp
	.seh_pushreg %rbp
	pushq	%r15
	.seh_pushreg %r15
	pushq	%r14
	.seh_pushreg %r14
	pushq	%rsi
	.seh_pushreg %rsi
	pushq	%rdi
	.seh_pushreg %rdi
	pushq	%rbx
	.seh_pushreg %rbx
	subq	$40, %rsp
	.seh_stackalloc 40
	leaq	128(%rdx), %rbp
	.seh_endprologue
	callq	__std_terminate
	int3
	.seh_handlerdata
	.section	.text,"xr",discard,"??$?6U?$char_traits@D@std@@@std@@YAAEAV?$basic_ostream@DU?$char_traits@D@std@@@0@AEAV10@D@Z"
	.seh_endproc
	.def	"?dtor$46@?0???$?6U?$char_traits@D@std@@@std@@YAAEAV?$basic_ostream@DU?$char_traits@D@std@@@0@AEAV10@D@Z@4HA";
	.scl	3;
	.type	32;
	.endef
	.p2align	4, 0x90
"?dtor$46@?0???$?6U?$char_traits@D@std@@@std@@YAAEAV?$basic_ostream@DU?$char_traits@D@std@@@0@AEAV10@D@Z@4HA":
.seh_proc "?dtor$46@?0???$?6U?$char_traits@D@std@@@std@@YAAEAV?$basic_ostream@DU?$char_traits@D@std@@@0@AEAV10@D@Z@4HA"
.LBB5_46:
	movq	%rdx, 16(%rsp)
	pushq	%rbp
	.seh_pushreg %rbp
	pushq	%r15
	.seh_pushreg %r15
	pushq	%r14
	.seh_pushreg %r14
	pushq	%rsi
	.seh_pushreg %rsi
	pushq	%rdi
	.seh_pushreg %rdi
	pushq	%rbx
	.seh_pushreg %rbx
	subq	$40, %rsp
	.seh_stackalloc 40
	leaq	128(%rdx), %rbp
	.seh_endprologue
	leaq	-8(%rbp), %rcx
	callq	"??1sentry@?$basic_ostream@DU?$char_traits@D@std@@@std@@QEAA@XZ"
	nop
	addq	$40, %rsp
	popq	%rbx
	popq	%rdi
	popq	%rsi
	popq	%r14
	popq	%r15
	popq	%rbp
	retq                                    # CLEANUPRET
	.seh_handlerdata
	.section	.text,"xr",discard,"??$?6U?$char_traits@D@std@@@std@@YAAEAV?$basic_ostream@DU?$char_traits@D@std@@@0@AEAV10@D@Z"
	.seh_endproc
	.def	"?dtor$47@?0???$?6U?$char_traits@D@std@@@std@@YAAEAV?$basic_ostream@DU?$char_traits@D@std@@@0@AEAV10@D@Z@4HA";
	.scl	3;
	.type	32;
	.endef
	.p2align	4, 0x90
"?dtor$47@?0???$?6U?$char_traits@D@std@@@std@@YAAEAV?$basic_ostream@DU?$char_traits@D@std@@@0@AEAV10@D@Z@4HA":
.seh_proc "?dtor$47@?0???$?6U?$char_traits@D@std@@@std@@YAAEAV?$basic_ostream@DU?$char_traits@D@std@@@0@AEAV10@D@Z@4HA"
.LBB5_47:
	movq	%rdx, 16(%rsp)
	pushq	%rbp
	.seh_pushreg %rbp
	pushq	%r15
	.seh_pushreg %r15
	pushq	%r14
	.seh_pushreg %r14
	pushq	%rsi
	.seh_pushreg %rsi
	pushq	%rdi
	.seh_pushreg %rdi
	pushq	%rbx
	.seh_pushreg %rbx
	subq	$40, %rsp
	.seh_stackalloc 40
	leaq	128(%rdx), %rbp
	.seh_endprologue
	leaq	-8(%rbp), %rcx
	callq	"??1_Sentry_base@?$basic_ostream@DU?$char_traits@D@std@@@std@@QEAA@XZ"
	nop
	addq	$40, %rsp
	popq	%rbx
	popq	%rdi
	popq	%rsi
	popq	%r14
	popq	%r15
	popq	%rbp
	retq                                    # CLEANUPRET
.Lfunc_end5:
	.seh_handlerdata
	.section	.text,"xr",discard,"??$?6U?$char_traits@D@std@@@std@@YAAEAV?$basic_ostream@DU?$char_traits@D@std@@@0@AEAV10@D@Z"
	.seh_endproc
	.section	.xdata,"dr",associative,"??$?6U?$char_traits@D@std@@@std@@YAAEAV?$basic_ostream@DU?$char_traits@D@std@@@0@AEAV10@D@Z"
	.p2align	2
"$cppxdata$??$?6U?$char_traits@D@std@@@std@@YAAEAV?$basic_ostream@DU?$char_traits@D@std@@@0@AEAV10@D@Z":
	.long	429065506                       # MagicNumber
	.long	6                               # MaxState
	.long	("$stateUnwindMap$??$?6U?$char_traits@D@std@@@std@@YAAEAV?$basic_ostream@DU?$char_traits@D@std@@@0@AEAV10@D@Z")@IMGREL # UnwindMap
	.long	1                               # NumTryBlocks
	.long	("$tryMap$??$?6U?$char_traits@D@std@@@std@@YAAEAV?$basic_ostream@DU?$char_traits@D@std@@@0@AEAV10@D@Z")@IMGREL # TryBlockMap
	.long	8                               # IPMapEntries
	.long	("$ip2state$??$?6U?$char_traits@D@std@@@std@@YAAEAV?$basic_ostream@DU?$char_traits@D@std@@@0@AEAV10@D@Z")@IMGREL # IPToStateXData
	.long	144                             # UnwindHelp
	.long	0                               # ESTypeList
	.long	1                               # EHFlags
"$stateUnwindMap$??$?6U?$char_traits@D@std@@@std@@YAAEAV?$basic_ostream@DU?$char_traits@D@std@@@0@AEAV10@D@Z":
	.long	-1                              # ToState
	.long	"?dtor$47@?0???$?6U?$char_traits@D@std@@@std@@YAAEAV?$basic_ostream@DU?$char_traits@D@std@@@0@AEAV10@D@Z@4HA"@IMGREL # Action
	.long	-1                              # ToState
	.long	"?dtor$44@?0???$?6U?$char_traits@D@std@@@std@@YAAEAV?$basic_ostream@DU?$char_traits@D@std@@@0@AEAV10@D@Z@4HA"@IMGREL # Action
	.long	-1                              # ToState
	.long	"?dtor$45@?0???$?6U?$char_traits@D@std@@@std@@YAAEAV?$basic_ostream@DU?$char_traits@D@std@@@0@AEAV10@D@Z@4HA"@IMGREL # Action
	.long	-1                              # ToState
	.long	"?dtor$46@?0???$?6U?$char_traits@D@std@@@std@@YAAEAV?$basic_ostream@DU?$char_traits@D@std@@@0@AEAV10@D@Z@4HA"@IMGREL # Action
	.long	3                               # ToState
	.long	0                               # Action
	.long	3                               # ToState
	.long	0                               # Action
"$tryMap$??$?6U?$char_traits@D@std@@@std@@YAAEAV?$basic_ostream@DU?$char_traits@D@std@@@0@AEAV10@D@Z":
	.long	4                               # TryLow
	.long	4                               # TryHigh
	.long	5                               # CatchHigh
	.long	1                               # NumCatches
	.long	("$handlerMap$0$??$?6U?$char_traits@D@std@@@std@@YAAEAV?$basic_ostream@DU?$char_traits@D@std@@@0@AEAV10@D@Z")@IMGREL # HandlerArray
"$handlerMap$0$??$?6U?$char_traits@D@std@@@std@@YAAEAV?$basic_ostream@DU?$char_traits@D@std@@@0@AEAV10@D@Z":
	.long	64                              # Adjectives
	.long	0                               # Type
	.long	0                               # CatchObjOffset
	.long	"?catch$36@?0???$?6U?$char_traits@D@std@@@std@@YAAEAV?$basic_ostream@DU?$char_traits@D@std@@@0@AEAV10@D@Z@4HA"@IMGREL # Handler
	.long	104                             # ParentFrameOffset
"$ip2state$??$?6U?$char_traits@D@std@@@std@@YAAEAV?$basic_ostream@DU?$char_traits@D@std@@@0@AEAV10@D@Z":
	.long	.Lfunc_begin5@IMGREL            # IP
	.long	-1                              # ToState
	.long	.Ltmp48@IMGREL+1                # IP
	.long	0                               # ToState
	.long	.Ltmp62@IMGREL+1                # IP
	.long	2                               # ToState
	.long	.Ltmp64@IMGREL+1                # IP
	.long	1                               # ToState
	.long	.Ltmp50@IMGREL+1                # IP
	.long	4                               # ToState
	.long	.Ltmp58@IMGREL+1                # IP
	.long	3                               # ToState
	.long	.Ltmp61@IMGREL+1                # IP
	.long	-1                              # ToState
	.long	"?catch$36@?0???$?6U?$char_traits@D@std@@@std@@YAAEAV?$basic_ostream@DU?$char_traits@D@std@@@0@AEAV10@D@Z@4HA"@IMGREL # IP
	.long	5                               # ToState
	.section	.text,"xr",discard,"??$?6U?$char_traits@D@std@@@std@@YAAEAV?$basic_ostream@DU?$char_traits@D@std@@@0@AEAV10@D@Z"
                                        # -- End function
	.def	"??$?6U?$char_traits@D@std@@@std@@YAAEAV?$basic_ostream@DU?$char_traits@D@std@@@0@AEAV10@PEBD@Z";
	.scl	2;
	.type	32;
	.endef
	.section	.text,"xr",discard,"??$?6U?$char_traits@D@std@@@std@@YAAEAV?$basic_ostream@DU?$char_traits@D@std@@@0@AEAV10@PEBD@Z"
	.globl	"??$?6U?$char_traits@D@std@@@std@@YAAEAV?$basic_ostream@DU?$char_traits@D@std@@@0@AEAV10@PEBD@Z" # -- Begin function ??$?6U?$char_traits@D@std@@@std@@YAAEAV?$basic_ostream@DU?$char_traits@D@std@@@0@AEAV10@PEBD@Z
	.p2align	4, 0x90
"??$?6U?$char_traits@D@std@@@std@@YAAEAV?$basic_ostream@DU?$char_traits@D@std@@@0@AEAV10@PEBD@Z": # @"??$?6U?$char_traits@D@std@@@std@@YAAEAV?$basic_ostream@DU?$char_traits@D@std@@@0@AEAV10@PEBD@Z"
.Lfunc_begin6:
.seh_proc "??$?6U?$char_traits@D@std@@@std@@YAAEAV?$basic_ostream@DU?$char_traits@D@std@@@0@AEAV10@PEBD@Z"
	.seh_handler __CxxFrameHandler3, @unwind, @except
# %bb.0:
	pushq	%rbp
	.seh_pushreg %rbp
	pushq	%r15
	.seh_pushreg %r15
	pushq	%r14
	.seh_pushreg %r14
	pushq	%r13
	.seh_pushreg %r13
	pushq	%r12
	.seh_pushreg %r12
	pushq	%rsi
	.seh_pushreg %rsi
	pushq	%rdi
	.seh_pushreg %rdi
	pushq	%rbx
	.seh_pushreg %rbx
	subq	$152, %rsp
	.seh_stackalloc 152
	leaq	128(%rsp), %rbp
	.seh_setframe %rbp, 128
	.seh_endprologue
	movq	$-2, 16(%rbp)
	movq	%rdx, %r14
	movq	%rcx, %rsi
	movq	%rdx, %rcx
	callq	strlen
	movq	%rax, %r15
	movq	(%rsi), %rax
	movslq	4(%rax), %rcx
	movq	40(%rsi,%rcx), %rcx
	xorl	%edx, %edx
	movq	%rcx, %r13
	subq	%r15, %r13
	cmovleq	%rdx, %r13
	testq	%rcx, %rcx
	cmovleq	%rdx, %r13
	movq	%rsi, -16(%rbp)
	movslq	4(%rax), %rax
	movq	72(%rsi,%rax), %rcx
	testq	%rcx, %rcx
	je	.LBB6_2
# %bb.1:
	movq	(%rcx), %rax
	callq	*8(%rax)
.LBB6_2:
	movq	(%rsi), %rax
	movslq	4(%rax), %rax
	cmpl	$0, 16(%rsi,%rax)
	je	.LBB6_4
# %bb.3:
	movb	$0, -8(%rbp)
	cmpb	$0, -8(%rbp)
	jne	.LBB6_11
	jmp	.LBB6_10
.LBB6_4:
	movq	80(%rsi,%rax), %rcx
	testq	%rcx, %rcx
	je	.LBB6_6
# %bb.5:
	cmpq	%rsi, %rcx
	je	.LBB6_6
# %bb.7:
.Ltmp66:
	callq	"?flush@?$basic_ostream@DU?$char_traits@D@std@@@std@@QEAAAEAV12@XZ"
.Ltmp67:
# %bb.8:
	movq	(%rsi), %rax
	movslq	4(%rax), %rax
	cmpl	$0, 16(%rsi,%rax)
	sete	-8(%rbp)
	cmpb	$0, -8(%rbp)
	jne	.LBB6_11
.LBB6_10:
	movl	$4, %r12d
	jmp	.LBB6_38
.LBB6_6:
	movb	$1, -8(%rbp)
	cmpb	$0, -8(%rbp)
	je	.LBB6_10
.LBB6_11:
	movq	(%rsi), %rax
	movslq	4(%rax), %rax
	movl	$448, %ecx                      # imm = 0x1C0
	andl	24(%rsi,%rax), %ecx
	xorl	%r12d, %r12d
	movb	$1, %al
	cmpl	$64, %ecx
	movq	%rsi, (%rbp)                    # 8-byte Spill
	je	.LBB6_22
# %bb.12:
	testq	%r13, %r13
	jle	.LBB6_22
	.p2align	4, 0x90
.LBB6_13:                               # =>This Inner Loop Header: Depth=1
	movq	(%rsi), %rax
	movslq	4(%rax), %rax
	movq	72(%rsi,%rax), %rcx
	movzbl	88(%rsi,%rax), %edx
	movzbl	%dl, %eax
	movq	64(%rcx), %rdi
	movq	(%rdi), %rsi
	testq	%rsi, %rsi
	je	.LBB6_16
# %bb.14:                               #   in Loop: Header=BB6_13 Depth=1
	movq	88(%rcx), %r8
	movl	(%r8), %ebx
	testl	%ebx, %ebx
	jle	.LBB6_16
# %bb.15:                               #   in Loop: Header=BB6_13 Depth=1
	decl	%ebx
	movl	%ebx, (%r8)
	leaq	1(%rsi), %rcx
	movq	%rcx, (%rdi)
	movb	%dl, (%rsi)
	jmp	.LBB6_17
	.p2align	4, 0x90
.LBB6_16:                               #   in Loop: Header=BB6_13 Depth=1
	movq	(%rcx), %rdx
	movq	24(%rdx), %rbx
	movl	$0, 12(%rbp)
.Ltmp68:
	movl	%eax, %edx
	callq	*%rbx
.Ltmp69:
.LBB6_17:                               #   in Loop: Header=BB6_13 Depth=1
	cmpl	$-1, %eax
	movq	(%rbp), %rsi                    # 8-byte Reload
	je	.LBB6_18
# %bb.19:                               #   in Loop: Header=BB6_13 Depth=1
	leaq	-1(%r13), %rcx
	cmpq	$1, %r13
	movq	%rcx, %r13
	jg	.LBB6_13
# %bb.20:
	xorl	%r12d, %r12d
	xorl	%r13d, %r13d
	jmp	.LBB6_21
.LBB6_18:
	movl	$4, %r12d
.LBB6_21:
	cmpl	$-1, %eax
	setne	%al
.LBB6_22:
	testb	%al, %al
	je	.LBB6_25
# %bb.23:
	movq	(%rsi), %rax
	movslq	4(%rax), %rax
	movq	72(%rsi,%rax), %rcx
	movq	(%rcx), %rax
	movq	72(%rax), %rax
	movl	$0, 12(%rbp)
.Ltmp70:
	movq	%r14, %rdx
	movq	%r15, %r8
	callq	*%rax
.Ltmp71:
# %bb.24:
	xorl	%r12d, %r12d
	cmpq	%r15, %rax
	setne	%r12b
	shll	$2, %r12d
	movq	(%rbp), %rsi                    # 8-byte Reload
.LBB6_25:
	testl	%r12d, %r12d
	jne	.LBB6_37
# %bb.26:
	testq	%r13, %r13
	jle	.LBB6_37
	.p2align	4, 0x90
.LBB6_27:                               # =>This Inner Loop Header: Depth=1
	movq	(%rsi), %rax
	movslq	4(%rax), %rax
	movq	72(%rsi,%rax), %rcx
	movzbl	88(%rsi,%rax), %edx
	movzbl	%dl, %eax
	movq	64(%rcx), %rsi
	movq	(%rsi), %rdi
	testq	%rdi, %rdi
	je	.LBB6_30
# %bb.28:                               #   in Loop: Header=BB6_27 Depth=1
	movq	88(%rcx), %r8
	movl	(%r8), %ebx
	testl	%ebx, %ebx
	jle	.LBB6_30
# %bb.29:                               #   in Loop: Header=BB6_27 Depth=1
	decl	%ebx
	movl	%ebx, (%r8)
	leaq	1(%rdi), %rcx
	movq	%rcx, (%rsi)
	movb	%dl, (%rdi)
	jmp	.LBB6_31
	.p2align	4, 0x90
.LBB6_30:                               #   in Loop: Header=BB6_27 Depth=1
	movq	(%rcx), %rdx
	movq	24(%rdx), %rbx
	movl	%r12d, 12(%rbp)
.Ltmp72:
	movl	%eax, %edx
	callq	*%rbx
.Ltmp73:
.LBB6_31:                               #   in Loop: Header=BB6_27 Depth=1
	cmpl	$-1, %eax
	je	.LBB6_32
# %bb.36:                               #   in Loop: Header=BB6_27 Depth=1
	leaq	-1(%r13), %rax
	cmpq	$1, %r13
	movq	%rax, %r13
	movq	(%rbp), %rsi                    # 8-byte Reload
	jg	.LBB6_27
	jmp	.LBB6_37
.LBB6_32:
	movl	$4, %r12d
	movq	(%rbp), %rsi                    # 8-byte Reload
.LBB6_37:
	movq	(%rsi), %rax
	movslq	4(%rax), %rax
	movq	$0, 40(%rsi,%rax)
.LBB6_38:
	movq	(%rsi), %rax
	movslq	4(%rax), %rax
	orl	16(%rsi,%rax), %r12d
	xorl	%ecx, %ecx
	cmpq	$0, 72(%rsi,%rax)
	sete	%cl
	shll	$2, %ecx
	andl	$23, %r12d
	orl	%ecx, %r12d
	movl	%r12d, 16(%rsi,%rax)
	andl	20(%rsi,%rax), %r12d
	jne	.LBB6_39
# %bb.42:
	callq	"?uncaught_exception@std@@YA_NXZ"
	testb	%al, %al
	jne	.LBB6_44
# %bb.43:
	movq	-16(%rbp), %rcx
.Ltmp80:
	callq	"?_Osfx@?$basic_ostream@DU?$char_traits@D@std@@@std@@QEAAXXZ"
.Ltmp81:
.LBB6_44:
	movq	-16(%rbp), %rax
	movq	(%rax), %rcx
	movslq	4(%rcx), %rcx
	movq	72(%rax,%rcx), %rcx
	testq	%rcx, %rcx
	je	.LBB6_46
# %bb.45:
	movq	(%rcx), %rax
.Ltmp82:
	callq	*16(%rax)
.Ltmp83:
.LBB6_46:
	movq	%rsi, %rax
	addq	$152, %rsp
	popq	%rbx
	popq	%rdi
	popq	%rsi
	popq	%r12
	popq	%r13
	popq	%r14
	popq	%r15
	popq	%rbp
	retq
.LBB6_39:
	testb	$2, %r12b
	leaq	"??_C@_0BF@OOHOMBOF@ios_base?3?3eofbit?5set?$AA@"(%rip), %rax
	leaq	"??_C@_0BG@FMKFHCIL@ios_base?3?3failbit?5set?$AA@"(%rip), %rcx
	cmoveq	%rax, %rcx
	testb	$4, %r12b
	leaq	"??_C@_0BF@PHHKMMFD@ios_base?3?3badbit?5set?$AA@"(%rip), %rsi
	cmoveq	%rcx, %rsi
	leaq	-48(%rbp), %rcx
	movl	$1, %edx
	callq	"?make_error_code@std@@YA?AVerror_code@1@W4io_errc@1@@Z"
	movups	-48(%rbp), %xmm0
	movaps	%xmm0, -32(%rbp)
.Ltmp76:
	leaq	-88(%rbp), %rcx
	leaq	-32(%rbp), %rdx
	movq	%rsi, %r8
	callq	"??0system_error@std@@QEAA@Verror_code@1@PEBD@Z"
.Ltmp77:
# %bb.40:
	leaq	"??_7failure@ios_base@std@@6B@"(%rip), %rax
	movq	%rax, -88(%rbp)
.Ltmp78:
	leaq	"_TI5?AVfailure@ios_base@std@@"(%rip), %rdx
	leaq	-88(%rbp), %rcx
	callq	_CxxThrowException
.Ltmp79:
# %bb.41:
.LBB6_35:                               # Block address taken
$ehgcr_6_35:
	movl	12(%rbp), %r12d
	movq	(%rbp), %rsi                    # 8-byte Reload
	jmp	.LBB6_38
	.seh_handlerdata
	.long	("$cppxdata$??$?6U?$char_traits@D@std@@@std@@YAAEAV?$basic_ostream@DU?$char_traits@D@std@@@0@AEAV10@PEBD@Z")@IMGREL
	.section	.text,"xr",discard,"??$?6U?$char_traits@D@std@@@std@@YAAEAV?$basic_ostream@DU?$char_traits@D@std@@@0@AEAV10@PEBD@Z"
	.seh_endproc
	.def	"?catch$33@?0???$?6U?$char_traits@D@std@@@std@@YAAEAV?$basic_ostream@DU?$char_traits@D@std@@@0@AEAV10@PEBD@Z@4HA";
	.scl	3;
	.type	32;
	.endef
	.p2align	4, 0x90
"?catch$33@?0???$?6U?$char_traits@D@std@@@std@@YAAEAV?$basic_ostream@DU?$char_traits@D@std@@@0@AEAV10@PEBD@Z@4HA":
.seh_proc "?catch$33@?0???$?6U?$char_traits@D@std@@@std@@YAAEAV?$basic_ostream@DU?$char_traits@D@std@@@0@AEAV10@PEBD@Z@4HA"
	.seh_handler __CxxFrameHandler3, @unwind, @except
.LBB6_33:
	movq	%rdx, 16(%rsp)
	pushq	%rbp
	.seh_pushreg %rbp
	pushq	%r15
	.seh_pushreg %r15
	pushq	%r14
	.seh_pushreg %r14
	pushq	%r13
	.seh_pushreg %r13
	pushq	%r12
	.seh_pushreg %r12
	pushq	%rsi
	.seh_pushreg %rsi
	pushq	%rdi
	.seh_pushreg %rdi
	pushq	%rbx
	.seh_pushreg %rbx
	subq	$40, %rsp
	.seh_stackalloc 40
	leaq	128(%rdx), %rbp
	.seh_endprologue
	movq	(%rbp), %rdx                    # 8-byte Reload
	movq	(%rdx), %rax
	movslq	4(%rax), %rcx
	addq	%rdx, %rcx
.Ltmp74:
	movl	$4, %edx
	movb	$1, %r8b
	callq	"?setstate@?$basic_ios@DU?$char_traits@D@std@@@std@@QEAAXH_N@Z"
.Ltmp75:
# %bb.34:
	leaq	.LBB6_35(%rip), %rax
	addq	$40, %rsp
	popq	%rbx
	popq	%rdi
	popq	%rsi
	popq	%r12
	popq	%r13
	popq	%r14
	popq	%r15
	popq	%rbp
	retq                                    # CATCHRET
	.seh_handlerdata
	.long	("$cppxdata$??$?6U?$char_traits@D@std@@@std@@YAAEAV?$basic_ostream@DU?$char_traits@D@std@@@0@AEAV10@PEBD@Z")@IMGREL
	.section	.text,"xr",discard,"??$?6U?$char_traits@D@std@@@std@@YAAEAV?$basic_ostream@DU?$char_traits@D@std@@@0@AEAV10@PEBD@Z"
	.seh_endproc
	.def	"?dtor$47@?0???$?6U?$char_traits@D@std@@@std@@YAAEAV?$basic_ostream@DU?$char_traits@D@std@@@0@AEAV10@PEBD@Z@4HA";
	.scl	3;
	.type	32;
	.endef
	.p2align	4, 0x90
"?dtor$47@?0???$?6U?$char_traits@D@std@@@std@@YAAEAV?$basic_ostream@DU?$char_traits@D@std@@@0@AEAV10@PEBD@Z@4HA":
.seh_proc "?dtor$47@?0???$?6U?$char_traits@D@std@@@std@@YAAEAV?$basic_ostream@DU?$char_traits@D@std@@@0@AEAV10@PEBD@Z@4HA"
.LBB6_47:
	movq	%rdx, 16(%rsp)
	pushq	%rbp
	.seh_pushreg %rbp
	pushq	%r15
	.seh_pushreg %r15
	pushq	%r14
	.seh_pushreg %r14
	pushq	%r13
	.seh_pushreg %r13
	pushq	%r12
	.seh_pushreg %r12
	pushq	%rsi
	.seh_pushreg %rsi
	pushq	%rdi
	.seh_pushreg %rdi
	pushq	%rbx
	.seh_pushreg %rbx
	subq	$40, %rsp
	.seh_stackalloc 40
	leaq	128(%rdx), %rbp
	.seh_endprologue
	callq	__std_terminate
	int3
	.seh_handlerdata
	.section	.text,"xr",discard,"??$?6U?$char_traits@D@std@@@std@@YAAEAV?$basic_ostream@DU?$char_traits@D@std@@@0@AEAV10@PEBD@Z"
	.seh_endproc
	.def	"?dtor$48@?0???$?6U?$char_traits@D@std@@@std@@YAAEAV?$basic_ostream@DU?$char_traits@D@std@@@0@AEAV10@PEBD@Z@4HA";
	.scl	3;
	.type	32;
	.endef
	.p2align	4, 0x90
"?dtor$48@?0???$?6U?$char_traits@D@std@@@std@@YAAEAV?$basic_ostream@DU?$char_traits@D@std@@@0@AEAV10@PEBD@Z@4HA":
.seh_proc "?dtor$48@?0???$?6U?$char_traits@D@std@@@std@@YAAEAV?$basic_ostream@DU?$char_traits@D@std@@@0@AEAV10@PEBD@Z@4HA"
.LBB6_48:
	movq	%rdx, 16(%rsp)
	pushq	%rbp
	.seh_pushreg %rbp
	pushq	%r15
	.seh_pushreg %r15
	pushq	%r14
	.seh_pushreg %r14
	pushq	%r13
	.seh_pushreg %r13
	pushq	%r12
	.seh_pushreg %r12
	pushq	%rsi
	.seh_pushreg %rsi
	pushq	%rdi
	.seh_pushreg %rdi
	pushq	%rbx
	.seh_pushreg %rbx
	subq	$40, %rsp
	.seh_stackalloc 40
	leaq	128(%rdx), %rbp
	.seh_endprologue
	callq	__std_terminate
	int3
	.seh_handlerdata
	.section	.text,"xr",discard,"??$?6U?$char_traits@D@std@@@std@@YAAEAV?$basic_ostream@DU?$char_traits@D@std@@@0@AEAV10@PEBD@Z"
	.seh_endproc
	.def	"?dtor$49@?0???$?6U?$char_traits@D@std@@@std@@YAAEAV?$basic_ostream@DU?$char_traits@D@std@@@0@AEAV10@PEBD@Z@4HA";
	.scl	3;
	.type	32;
	.endef
	.p2align	4, 0x90
"?dtor$49@?0???$?6U?$char_traits@D@std@@@std@@YAAEAV?$basic_ostream@DU?$char_traits@D@std@@@0@AEAV10@PEBD@Z@4HA":
.seh_proc "?dtor$49@?0???$?6U?$char_traits@D@std@@@std@@YAAEAV?$basic_ostream@DU?$char_traits@D@std@@@0@AEAV10@PEBD@Z@4HA"
.LBB6_49:
	movq	%rdx, 16(%rsp)
	pushq	%rbp
	.seh_pushreg %rbp
	pushq	%r15
	.seh_pushreg %r15
	pushq	%r14
	.seh_pushreg %r14
	pushq	%r13
	.seh_pushreg %r13
	pushq	%r12
	.seh_pushreg %r12
	pushq	%rsi
	.seh_pushreg %rsi
	pushq	%rdi
	.seh_pushreg %rdi
	pushq	%rbx
	.seh_pushreg %rbx
	subq	$40, %rsp
	.seh_stackalloc 40
	leaq	128(%rdx), %rbp
	.seh_endprologue
	leaq	-16(%rbp), %rcx
	callq	"??1sentry@?$basic_ostream@DU?$char_traits@D@std@@@std@@QEAA@XZ"
	nop
	addq	$40, %rsp
	popq	%rbx
	popq	%rdi
	popq	%rsi
	popq	%r12
	popq	%r13
	popq	%r14
	popq	%r15
	popq	%rbp
	retq                                    # CLEANUPRET
	.seh_handlerdata
	.section	.text,"xr",discard,"??$?6U?$char_traits@D@std@@@std@@YAAEAV?$basic_ostream@DU?$char_traits@D@std@@@0@AEAV10@PEBD@Z"
	.seh_endproc
	.def	"?dtor$50@?0???$?6U?$char_traits@D@std@@@std@@YAAEAV?$basic_ostream@DU?$char_traits@D@std@@@0@AEAV10@PEBD@Z@4HA";
	.scl	3;
	.type	32;
	.endef
	.p2align	4, 0x90
"?dtor$50@?0???$?6U?$char_traits@D@std@@@std@@YAAEAV?$basic_ostream@DU?$char_traits@D@std@@@0@AEAV10@PEBD@Z@4HA":
.seh_proc "?dtor$50@?0???$?6U?$char_traits@D@std@@@std@@YAAEAV?$basic_ostream@DU?$char_traits@D@std@@@0@AEAV10@PEBD@Z@4HA"
.LBB6_50:
	movq	%rdx, 16(%rsp)
	pushq	%rbp
	.seh_pushreg %rbp
	pushq	%r15
	.seh_pushreg %r15
	pushq	%r14
	.seh_pushreg %r14
	pushq	%r13
	.seh_pushreg %r13
	pushq	%r12
	.seh_pushreg %r12
	pushq	%rsi
	.seh_pushreg %rsi
	pushq	%rdi
	.seh_pushreg %rdi
	pushq	%rbx
	.seh_pushreg %rbx
	subq	$40, %rsp
	.seh_stackalloc 40
	leaq	128(%rdx), %rbp
	.seh_endprologue
	leaq	-16(%rbp), %rcx
	callq	"??1_Sentry_base@?$basic_ostream@DU?$char_traits@D@std@@@std@@QEAA@XZ"
	nop
	addq	$40, %rsp
	popq	%rbx
	popq	%rdi
	popq	%rsi
	popq	%r12
	popq	%r13
	popq	%r14
	popq	%r15
	popq	%rbp
	retq                                    # CLEANUPRET
.Lfunc_end6:
	.seh_handlerdata
	.section	.text,"xr",discard,"??$?6U?$char_traits@D@std@@@std@@YAAEAV?$basic_ostream@DU?$char_traits@D@std@@@0@AEAV10@PEBD@Z"
	.seh_endproc
	.section	.xdata,"dr",associative,"??$?6U?$char_traits@D@std@@@std@@YAAEAV?$basic_ostream@DU?$char_traits@D@std@@@0@AEAV10@PEBD@Z"
	.p2align	2
"$cppxdata$??$?6U?$char_traits@D@std@@@std@@YAAEAV?$basic_ostream@DU?$char_traits@D@std@@@0@AEAV10@PEBD@Z":
	.long	429065506                       # MagicNumber
	.long	6                               # MaxState
	.long	("$stateUnwindMap$??$?6U?$char_traits@D@std@@@std@@YAAEAV?$basic_ostream@DU?$char_traits@D@std@@@0@AEAV10@PEBD@Z")@IMGREL # UnwindMap
	.long	1                               # NumTryBlocks
	.long	("$tryMap$??$?6U?$char_traits@D@std@@@std@@YAAEAV?$basic_ostream@DU?$char_traits@D@std@@@0@AEAV10@PEBD@Z")@IMGREL # TryBlockMap
	.long	8                               # IPMapEntries
	.long	("$ip2state$??$?6U?$char_traits@D@std@@@std@@YAAEAV?$basic_ostream@DU?$char_traits@D@std@@@0@AEAV10@PEBD@Z")@IMGREL # IPToStateXData
	.long	144                             # UnwindHelp
	.long	0                               # ESTypeList
	.long	1                               # EHFlags
"$stateUnwindMap$??$?6U?$char_traits@D@std@@@std@@YAAEAV?$basic_ostream@DU?$char_traits@D@std@@@0@AEAV10@PEBD@Z":
	.long	-1                              # ToState
	.long	"?dtor$50@?0???$?6U?$char_traits@D@std@@@std@@YAAEAV?$basic_ostream@DU?$char_traits@D@std@@@0@AEAV10@PEBD@Z@4HA"@IMGREL # Action
	.long	-1                              # ToState
	.long	"?dtor$47@?0???$?6U?$char_traits@D@std@@@std@@YAAEAV?$basic_ostream@DU?$char_traits@D@std@@@0@AEAV10@PEBD@Z@4HA"@IMGREL # Action
	.long	-1                              # ToState
	.long	"?dtor$48@?0???$?6U?$char_traits@D@std@@@std@@YAAEAV?$basic_ostream@DU?$char_traits@D@std@@@0@AEAV10@PEBD@Z@4HA"@IMGREL # Action
	.long	-1                              # ToState
	.long	"?dtor$49@?0???$?6U?$char_traits@D@std@@@std@@YAAEAV?$basic_ostream@DU?$char_traits@D@std@@@0@AEAV10@PEBD@Z@4HA"@IMGREL # Action
	.long	3                               # ToState
	.long	0                               # Action
	.long	3                               # ToState
	.long	0                               # Action
"$tryMap$??$?6U?$char_traits@D@std@@@std@@YAAEAV?$basic_ostream@DU?$char_traits@D@std@@@0@AEAV10@PEBD@Z":
	.long	4                               # TryLow
	.long	4                               # TryHigh
	.long	5                               # CatchHigh
	.long	1                               # NumCatches
	.long	("$handlerMap$0$??$?6U?$char_traits@D@std@@@std@@YAAEAV?$basic_ostream@DU?$char_traits@D@std@@@0@AEAV10@PEBD@Z")@IMGREL # HandlerArray
"$handlerMap$0$??$?6U?$char_traits@D@std@@@std@@YAAEAV?$basic_ostream@DU?$char_traits@D@std@@@0@AEAV10@PEBD@Z":
	.long	64                              # Adjectives
	.long	0                               # Type
	.long	0                               # CatchObjOffset
	.long	"?catch$33@?0???$?6U?$char_traits@D@std@@@std@@YAAEAV?$basic_ostream@DU?$char_traits@D@std@@@0@AEAV10@PEBD@Z@4HA"@IMGREL # Handler
	.long	120                             # ParentFrameOffset
"$ip2state$??$?6U?$char_traits@D@std@@@std@@YAAEAV?$basic_ostream@DU?$char_traits@D@std@@@0@AEAV10@PEBD@Z":
	.long	.Lfunc_begin6@IMGREL            # IP
	.long	-1                              # ToState
	.long	.Ltmp66@IMGREL+1                # IP
	.long	0                               # ToState
	.long	.Ltmp68@IMGREL+1                # IP
	.long	4                               # ToState
	.long	.Ltmp80@IMGREL+1                # IP
	.long	2                               # ToState
	.long	.Ltmp82@IMGREL+1                # IP
	.long	1                               # ToState
	.long	.Ltmp76@IMGREL+1                # IP
	.long	3                               # ToState
	.long	.Ltmp79@IMGREL+1                # IP
	.long	-1                              # ToState
	.long	"?catch$33@?0???$?6U?$char_traits@D@std@@@std@@YAAEAV?$basic_ostream@DU?$char_traits@D@std@@@0@AEAV10@PEBD@Z@4HA"@IMGREL # IP
	.long	5                               # ToState
	.section	.text,"xr",discard,"??$?6U?$char_traits@D@std@@@std@@YAAEAV?$basic_ostream@DU?$char_traits@D@std@@@0@AEAV10@PEBD@Z"
                                        # -- End function
	.def	"??6?$basic_ostream@DU?$char_traits@D@std@@@std@@QEAAAEAV01@_K@Z";
	.scl	2;
	.type	32;
	.endef
	.section	.text,"xr",discard,"??6?$basic_ostream@DU?$char_traits@D@std@@@std@@QEAAAEAV01@_K@Z"
	.globl	"??6?$basic_ostream@DU?$char_traits@D@std@@@std@@QEAAAEAV01@_K@Z" # -- Begin function ??6?$basic_ostream@DU?$char_traits@D@std@@@std@@QEAAAEAV01@_K@Z
	.p2align	4, 0x90
"??6?$basic_ostream@DU?$char_traits@D@std@@@std@@QEAAAEAV01@_K@Z": # @"??6?$basic_ostream@DU?$char_traits@D@std@@@std@@QEAAAEAV01@_K@Z"
.Lfunc_begin7:
.seh_proc "??6?$basic_ostream@DU?$char_traits@D@std@@@std@@QEAAAEAV01@_K@Z"
	.seh_handler __CxxFrameHandler3, @unwind, @except
# %bb.0:
	pushq	%rbp
	.seh_pushreg %rbp
	pushq	%r14
	.seh_pushreg %r14
	pushq	%rsi
	.seh_pushreg %rsi
	pushq	%rdi
	.seh_pushreg %rdi
	pushq	%rbx
	.seh_pushreg %rbx
	subq	$192, %rsp
	.seh_stackalloc 192
	leaq	128(%rsp), %rbp
	.seh_setframe %rbp, 128
	.seh_endprologue
	movq	$-2, 56(%rbp)
	movq	%rdx, %r14
	movq	%rcx, %rbx
	movq	%rcx, 32(%rbp)
	movq	(%rcx), %rax
	movslq	4(%rax), %rax
	movq	72(%rcx,%rax), %rcx
	testq	%rcx, %rcx
	je	.LBB7_2
# %bb.1:
	movq	(%rcx), %rax
	callq	*8(%rax)
.LBB7_2:
	movq	(%rbx), %rax
	movslq	4(%rax), %rax
	cmpl	$0, 16(%rbx,%rax)
	je	.LBB7_4
# %bb.3:
	movb	$0, 40(%rbp)
	jmp	.LBB7_9
.LBB7_4:
	movq	80(%rbx,%rax), %rcx
	testq	%rcx, %rcx
	je	.LBB7_6
# %bb.5:
	cmpq	%rbx, %rcx
	je	.LBB7_6
# %bb.7:
.Ltmp84:
	callq	"?flush@?$basic_ostream@DU?$char_traits@D@std@@@std@@QEAAAEAV12@XZ"
.Ltmp85:
# %bb.8:
	movq	(%rbx), %rax
	movslq	4(%rax), %rax
	cmpl	$0, 16(%rbx,%rax)
	sete	40(%rbp)
	jmp	.LBB7_9
.LBB7_6:
	movb	$1, 40(%rbp)
.LBB7_9:
	cmpb	$0, 40(%rbp)
	movq	%rbx, 24(%rbp)                  # 8-byte Spill
	je	.LBB7_10
# %bb.11:
	movq	(%rbx), %rax
	movslq	4(%rax), %rax
	movq	64(%rbx,%rax), %rax
	movq	8(%rax), %rcx
	movq	%rcx, -24(%rbp)
	movq	(%rcx), %rax
	callq	*8(%rax)
.Ltmp86:
	leaq	-32(%rbp), %rcx
	callq	"??$use_facet@V?$num_put@DV?$ostreambuf_iterator@DU?$char_traits@D@std@@@std@@@std@@@std@@YAAEBV?$num_put@DV?$ostreambuf_iterator@DU?$char_traits@D@std@@@std@@@0@AEBVlocale@0@@Z"
.Ltmp87:
# %bb.12:
	movq	%rax, %rdi
	movq	-24(%rbp), %rcx
	testq	%rcx, %rcx
	je	.LBB7_15
# %bb.13:
	movq	(%rcx), %rax
	callq	*16(%rax)
	testq	%rax, %rax
	je	.LBB7_15
# %bb.14:
	movq	(%rax), %rsi
	movq	%rax, %rcx
	movl	$1, %edx
	callq	*(%rsi)
.LBB7_15:
	movq	(%rbx), %rax
	movslq	4(%rax), %rax
	leaq	(%rbx,%rax), %r9
	movzbl	88(%rbx,%rax), %ecx
	movq	72(%rbx,%rax), %rax
	movb	$0, 8(%rbp)
	movq	%rax, 16(%rbp)
	movq	(%rdi), %rax
	movq	48(%rax), %rax
.Ltmp88:
	movq	%r14, 40(%rsp)
	movb	%cl, 32(%rsp)
	leaq	-64(%rbp), %rdx
	leaq	8(%rbp), %r8
	movq	%rdi, %rcx
	callq	*%rax
.Ltmp89:
# %bb.16:
	movzbl	-64(%rbp), %eax
	shll	$2, %eax
	movl	%eax, 52(%rbp)                  # 4-byte Spill
	jmp	.LBB7_17
.LBB7_10:
	movl	$0, 52(%rbp)                    # 4-byte Folded Spill
.LBB7_17:                               # Block address taken
$ehgcr_7_17:
	movq	24(%rbp), %rsi                  # 8-byte Reload
	movq	(%rsi), %rax
	movslq	4(%rax), %rcx
	movl	16(%rsi,%rcx), %eax
	xorl	%edx, %edx
	cmpq	$0, 72(%rsi,%rcx)
	sete	%dl
	shll	$2, %edx
	andl	$23, %eax
	orl	52(%rbp), %eax                  # 4-byte Folded Reload
	orl	%edx, %eax
	movl	%eax, 16(%rsi,%rcx)
	andl	20(%rsi,%rcx), %eax
	jne	.LBB7_18
# %bb.27:
	callq	"?uncaught_exception@std@@YA_NXZ"
	testb	%al, %al
	jne	.LBB7_29
# %bb.28:
	movq	32(%rbp), %rcx
.Ltmp96:
	callq	"?_Osfx@?$basic_ostream@DU?$char_traits@D@std@@@std@@QEAAXXZ"
.Ltmp97:
.LBB7_29:
	movq	32(%rbp), %rax
	movq	(%rax), %rcx
	movslq	4(%rcx), %rcx
	movq	72(%rax,%rcx), %rcx
	testq	%rcx, %rcx
	je	.LBB7_31
# %bb.30:
	movq	(%rcx), %rax
.Ltmp98:
	callq	*16(%rax)
.Ltmp99:
.LBB7_31:
	movq	%rsi, %rax
	addq	$192, %rsp
	popq	%rbx
	popq	%rdi
	popq	%rsi
	popq	%r14
	popq	%rbp
	retq
.LBB7_18:
	testb	$2, %al
	leaq	"??_C@_0BF@OOHOMBOF@ios_base?3?3eofbit?5set?$AA@"(%rip), %rcx
	leaq	"??_C@_0BG@FMKFHCIL@ios_base?3?3failbit?5set?$AA@"(%rip), %rdx
	cmoveq	%rcx, %rdx
	testb	$4, %al
	leaq	"??_C@_0BF@PHHKMMFD@ios_base?3?3badbit?5set?$AA@"(%rip), %rsi
	cmoveq	%rdx, %rsi
	leaq	-80(%rbp), %rcx
	movl	$1, %edx
	callq	"?make_error_code@std@@YA?AVerror_code@1@W4io_errc@1@@Z"
	movups	-80(%rbp), %xmm0
	movaps	%xmm0, -48(%rbp)
.Ltmp92:
	leaq	-32(%rbp), %rcx
	leaq	-48(%rbp), %rdx
	movq	%rsi, %r8
	callq	"??0system_error@std@@QEAA@Verror_code@1@PEBD@Z"
.Ltmp93:
# %bb.19:
	leaq	"??_7failure@ios_base@std@@6B@"(%rip), %rax
	movq	%rax, -32(%rbp)
.Ltmp94:
	leaq	"_TI5?AVfailure@ios_base@std@@"(%rip), %rdx
	leaq	-32(%rbp), %rcx
	callq	_CxxThrowException
.Ltmp95:
# %bb.26:
	int3
	.seh_handlerdata
	.long	("$cppxdata$??6?$basic_ostream@DU?$char_traits@D@std@@@std@@QEAAAEAV01@_K@Z")@IMGREL
	.section	.text,"xr",discard,"??6?$basic_ostream@DU?$char_traits@D@std@@@std@@QEAAAEAV01@_K@Z"
	.seh_endproc
	.def	"?dtor$20@?0???6?$basic_ostream@DU?$char_traits@D@std@@@std@@QEAAAEAV01@_K@Z@4HA";
	.scl	3;
	.type	32;
	.endef
	.p2align	4, 0x90
"?dtor$20@?0???6?$basic_ostream@DU?$char_traits@D@std@@@std@@QEAAAEAV01@_K@Z@4HA":
.seh_proc "?dtor$20@?0???6?$basic_ostream@DU?$char_traits@D@std@@@std@@QEAAAEAV01@_K@Z@4HA"
.LBB7_20:
	movq	%rdx, 16(%rsp)
	pushq	%rbp
	.seh_pushreg %rbp
	pushq	%r14
	.seh_pushreg %r14
	pushq	%rsi
	.seh_pushreg %rsi
	pushq	%rdi
	.seh_pushreg %rdi
	pushq	%rbx
	.seh_pushreg %rbx
	subq	$48, %rsp
	.seh_stackalloc 48
	leaq	128(%rdx), %rbp
	.seh_endprologue
	movq	-24(%rbp), %rcx
	testq	%rcx, %rcx
	je	.LBB7_23
# %bb.21:
	movq	(%rcx), %rax
	callq	*16(%rax)
	testq	%rax, %rax
	je	.LBB7_23
# %bb.22:
	movq	(%rax), %rbx
	movq	%rax, %rcx
	movl	$1, %edx
	callq	*(%rbx)
.LBB7_23:
	nop
	addq	$48, %rsp
	popq	%rbx
	popq	%rdi
	popq	%rsi
	popq	%r14
	popq	%rbp
	retq                                    # CLEANUPRET
	.seh_handlerdata
	.section	.text,"xr",discard,"??6?$basic_ostream@DU?$char_traits@D@std@@@std@@QEAAAEAV01@_K@Z"
	.seh_endproc
	.def	"?catch$24@?0???6?$basic_ostream@DU?$char_traits@D@std@@@std@@QEAAAEAV01@_K@Z@4HA";
	.scl	3;
	.type	32;
	.endef
	.p2align	4, 0x90
"?catch$24@?0???6?$basic_ostream@DU?$char_traits@D@std@@@std@@QEAAAEAV01@_K@Z@4HA":
.seh_proc "?catch$24@?0???6?$basic_ostream@DU?$char_traits@D@std@@@std@@QEAAAEAV01@_K@Z@4HA"
	.seh_handler __CxxFrameHandler3, @unwind, @except
.LBB7_24:
	movq	%rdx, 16(%rsp)
	pushq	%rbp
	.seh_pushreg %rbp
	pushq	%r14
	.seh_pushreg %r14
	pushq	%rsi
	.seh_pushreg %rsi
	pushq	%rdi
	.seh_pushreg %rdi
	pushq	%rbx
	.seh_pushreg %rbx
	subq	$48, %rsp
	.seh_stackalloc 48
	leaq	128(%rdx), %rbp
	.seh_endprologue
	movq	24(%rbp), %rdx                  # 8-byte Reload
	movq	(%rdx), %rax
	movslq	4(%rax), %rcx
	addq	%rdx, %rcx
.Ltmp90:
	movl	$4, %edx
	movb	$1, %r8b
	callq	"?setstate@?$basic_ios@DU?$char_traits@D@std@@@std@@QEAAXH_N@Z"
.Ltmp91:
# %bb.25:
	movl	$0, 52(%rbp)                    # 4-byte Folded Spill
	leaq	.LBB7_17(%rip), %rax
	addq	$48, %rsp
	popq	%rbx
	popq	%rdi
	popq	%rsi
	popq	%r14
	popq	%rbp
	retq                                    # CATCHRET
	.seh_handlerdata
	.long	("$cppxdata$??6?$basic_ostream@DU?$char_traits@D@std@@@std@@QEAAAEAV01@_K@Z")@IMGREL
	.section	.text,"xr",discard,"??6?$basic_ostream@DU?$char_traits@D@std@@@std@@QEAAAEAV01@_K@Z"
	.seh_endproc
	.def	"?dtor$32@?0???6?$basic_ostream@DU?$char_traits@D@std@@@std@@QEAAAEAV01@_K@Z@4HA";
	.scl	3;
	.type	32;
	.endef
	.p2align	4, 0x90
"?dtor$32@?0???6?$basic_ostream@DU?$char_traits@D@std@@@std@@QEAAAEAV01@_K@Z@4HA":
.seh_proc "?dtor$32@?0???6?$basic_ostream@DU?$char_traits@D@std@@@std@@QEAAAEAV01@_K@Z@4HA"
.LBB7_32:
	movq	%rdx, 16(%rsp)
	pushq	%rbp
	.seh_pushreg %rbp
	pushq	%r14
	.seh_pushreg %r14
	pushq	%rsi
	.seh_pushreg %rsi
	pushq	%rdi
	.seh_pushreg %rdi
	pushq	%rbx
	.seh_pushreg %rbx
	subq	$48, %rsp
	.seh_stackalloc 48
	leaq	128(%rdx), %rbp
	.seh_endprologue
	callq	__std_terminate
	int3
	.seh_handlerdata
	.section	.text,"xr",discard,"??6?$basic_ostream@DU?$char_traits@D@std@@@std@@QEAAAEAV01@_K@Z"
	.seh_endproc
	.def	"?dtor$33@?0???6?$basic_ostream@DU?$char_traits@D@std@@@std@@QEAAAEAV01@_K@Z@4HA";
	.scl	3;
	.type	32;
	.endef
	.p2align	4, 0x90
"?dtor$33@?0???6?$basic_ostream@DU?$char_traits@D@std@@@std@@QEAAAEAV01@_K@Z@4HA":
.seh_proc "?dtor$33@?0???6?$basic_ostream@DU?$char_traits@D@std@@@std@@QEAAAEAV01@_K@Z@4HA"
.LBB7_33:
	movq	%rdx, 16(%rsp)
	pushq	%rbp
	.seh_pushreg %rbp
	pushq	%r14
	.seh_pushreg %r14
	pushq	%rsi
	.seh_pushreg %rsi
	pushq	%rdi
	.seh_pushreg %rdi
	pushq	%rbx
	.seh_pushreg %rbx
	subq	$48, %rsp
	.seh_stackalloc 48
	leaq	128(%rdx), %rbp
	.seh_endprologue
	callq	__std_terminate
	int3
	.seh_handlerdata
	.section	.text,"xr",discard,"??6?$basic_ostream@DU?$char_traits@D@std@@@std@@QEAAAEAV01@_K@Z"
	.seh_endproc
	.def	"?dtor$34@?0???6?$basic_ostream@DU?$char_traits@D@std@@@std@@QEAAAEAV01@_K@Z@4HA";
	.scl	3;
	.type	32;
	.endef
	.p2align	4, 0x90
"?dtor$34@?0???6?$basic_ostream@DU?$char_traits@D@std@@@std@@QEAAAEAV01@_K@Z@4HA":
.seh_proc "?dtor$34@?0???6?$basic_ostream@DU?$char_traits@D@std@@@std@@QEAAAEAV01@_K@Z@4HA"
.LBB7_34:
	movq	%rdx, 16(%rsp)
	pushq	%rbp
	.seh_pushreg %rbp
	pushq	%r14
	.seh_pushreg %r14
	pushq	%rsi
	.seh_pushreg %rsi
	pushq	%rdi
	.seh_pushreg %rdi
	pushq	%rbx
	.seh_pushreg %rbx
	subq	$48, %rsp
	.seh_stackalloc 48
	leaq	128(%rdx), %rbp
	.seh_endprologue
	leaq	32(%rbp), %rcx
	callq	"??1sentry@?$basic_ostream@DU?$char_traits@D@std@@@std@@QEAA@XZ"
	nop
	addq	$48, %rsp
	popq	%rbx
	popq	%rdi
	popq	%rsi
	popq	%r14
	popq	%rbp
	retq                                    # CLEANUPRET
	.seh_handlerdata
	.section	.text,"xr",discard,"??6?$basic_ostream@DU?$char_traits@D@std@@@std@@QEAAAEAV01@_K@Z"
	.seh_endproc
	.def	"?dtor$35@?0???6?$basic_ostream@DU?$char_traits@D@std@@@std@@QEAAAEAV01@_K@Z@4HA";
	.scl	3;
	.type	32;
	.endef
	.p2align	4, 0x90
"?dtor$35@?0???6?$basic_ostream@DU?$char_traits@D@std@@@std@@QEAAAEAV01@_K@Z@4HA":
.seh_proc "?dtor$35@?0???6?$basic_ostream@DU?$char_traits@D@std@@@std@@QEAAAEAV01@_K@Z@4HA"
.LBB7_35:
	movq	%rdx, 16(%rsp)
	pushq	%rbp
	.seh_pushreg %rbp
	pushq	%r14
	.seh_pushreg %r14
	pushq	%rsi
	.seh_pushreg %rsi
	pushq	%rdi
	.seh_pushreg %rdi
	pushq	%rbx
	.seh_pushreg %rbx
	subq	$48, %rsp
	.seh_stackalloc 48
	leaq	128(%rdx), %rbp
	.seh_endprologue
	leaq	32(%rbp), %rcx
	callq	"??1_Sentry_base@?$basic_ostream@DU?$char_traits@D@std@@@std@@QEAA@XZ"
	nop
	addq	$48, %rsp
	popq	%rbx
	popq	%rdi
	popq	%rsi
	popq	%r14
	popq	%rbp
	retq                                    # CLEANUPRET
.Lfunc_end7:
	.seh_handlerdata
	.section	.text,"xr",discard,"??6?$basic_ostream@DU?$char_traits@D@std@@@std@@QEAAAEAV01@_K@Z"
	.seh_endproc
	.section	.xdata,"dr",associative,"??6?$basic_ostream@DU?$char_traits@D@std@@@std@@QEAAAEAV01@_K@Z"
	.p2align	2
"$cppxdata$??6?$basic_ostream@DU?$char_traits@D@std@@@std@@QEAAAEAV01@_K@Z":
	.long	429065506                       # MagicNumber
	.long	7                               # MaxState
	.long	("$stateUnwindMap$??6?$basic_ostream@DU?$char_traits@D@std@@@std@@QEAAAEAV01@_K@Z")@IMGREL # UnwindMap
	.long	1                               # NumTryBlocks
	.long	("$tryMap$??6?$basic_ostream@DU?$char_traits@D@std@@@std@@QEAAAEAV01@_K@Z")@IMGREL # TryBlockMap
	.long	11                              # IPMapEntries
	.long	("$ip2state$??6?$basic_ostream@DU?$char_traits@D@std@@@std@@QEAAAEAV01@_K@Z")@IMGREL # IPToStateXData
	.long	184                             # UnwindHelp
	.long	0                               # ESTypeList
	.long	1                               # EHFlags
"$stateUnwindMap$??6?$basic_ostream@DU?$char_traits@D@std@@@std@@QEAAAEAV01@_K@Z":
	.long	-1                              # ToState
	.long	"?dtor$35@?0???6?$basic_ostream@DU?$char_traits@D@std@@@std@@QEAAAEAV01@_K@Z@4HA"@IMGREL # Action
	.long	-1                              # ToState
	.long	"?dtor$32@?0???6?$basic_ostream@DU?$char_traits@D@std@@@std@@QEAAAEAV01@_K@Z@4HA"@IMGREL # Action
	.long	-1                              # ToState
	.long	"?dtor$33@?0???6?$basic_ostream@DU?$char_traits@D@std@@@std@@QEAAAEAV01@_K@Z@4HA"@IMGREL # Action
	.long	-1                              # ToState
	.long	"?dtor$34@?0???6?$basic_ostream@DU?$char_traits@D@std@@@std@@QEAAAEAV01@_K@Z@4HA"@IMGREL # Action
	.long	3                               # ToState
	.long	"?dtor$20@?0???6?$basic_ostream@DU?$char_traits@D@std@@@std@@QEAAAEAV01@_K@Z@4HA"@IMGREL # Action
	.long	3                               # ToState
	.long	0                               # Action
	.long	3                               # ToState
	.long	0                               # Action
"$tryMap$??6?$basic_ostream@DU?$char_traits@D@std@@@std@@QEAAAEAV01@_K@Z":
	.long	5                               # TryLow
	.long	5                               # TryHigh
	.long	6                               # CatchHigh
	.long	1                               # NumCatches
	.long	("$handlerMap$0$??6?$basic_ostream@DU?$char_traits@D@std@@@std@@QEAAAEAV01@_K@Z")@IMGREL # HandlerArray
"$handlerMap$0$??6?$basic_ostream@DU?$char_traits@D@std@@@std@@QEAAAEAV01@_K@Z":
	.long	64                              # Adjectives
	.long	0                               # Type
	.long	0                               # CatchObjOffset
	.long	"?catch$24@?0???6?$basic_ostream@DU?$char_traits@D@std@@@std@@QEAAAEAV01@_K@Z@4HA"@IMGREL # Handler
	.long	104                             # ParentFrameOffset
"$ip2state$??6?$basic_ostream@DU?$char_traits@D@std@@@std@@QEAAAEAV01@_K@Z":
	.long	.Lfunc_begin7@IMGREL            # IP
	.long	-1                              # ToState
	.long	.Ltmp84@IMGREL+1                # IP
	.long	0                               # ToState
	.long	.Ltmp85@IMGREL+1                # IP
	.long	-1                              # ToState
	.long	.Ltmp86@IMGREL+1                # IP
	.long	4                               # ToState
	.long	.Ltmp87@IMGREL+1                # IP
	.long	-1                              # ToState
	.long	.Ltmp88@IMGREL+1                # IP
	.long	5                               # ToState
	.long	.Ltmp96@IMGREL+1                # IP
	.long	2                               # ToState
	.long	.Ltmp98@IMGREL+1                # IP
	.long	1                               # ToState
	.long	.Ltmp92@IMGREL+1                # IP
	.long	3                               # ToState
	.long	.Ltmp95@IMGREL+1                # IP
	.long	-1                              # ToState
	.long	"?catch$24@?0???6?$basic_ostream@DU?$char_traits@D@std@@@std@@QEAAAEAV01@_K@Z@4HA"@IMGREL # IP
	.long	6                               # ToState
	.section	.text,"xr",discard,"??6?$basic_ostream@DU?$char_traits@D@std@@@std@@QEAAAEAV01@_K@Z"
                                        # -- End function
	.def	"??1?$vector@DV?$allocator@D@std@@@std@@QEAA@XZ";
	.scl	2;
	.type	32;
	.endef
	.section	.text,"xr",discard,"??1?$vector@DV?$allocator@D@std@@@std@@QEAA@XZ"
	.globl	"??1?$vector@DV?$allocator@D@std@@@std@@QEAA@XZ" # -- Begin function ??1?$vector@DV?$allocator@D@std@@@std@@QEAA@XZ
	.p2align	4, 0x90
"??1?$vector@DV?$allocator@D@std@@@std@@QEAA@XZ": # @"??1?$vector@DV?$allocator@D@std@@@std@@QEAA@XZ"
.Lfunc_begin8:
.seh_proc "??1?$vector@DV?$allocator@D@std@@@std@@QEAA@XZ"
	.seh_handler __CxxFrameHandler3, @unwind, @except
# %bb.0:
	pushq	%rbp
	.seh_pushreg %rbp
	pushq	%rsi
	.seh_pushreg %rsi
	subq	$40, %rsp
	.seh_stackalloc 40
	leaq	32(%rsp), %rbp
	.seh_setframe %rbp, 32
	.seh_endprologue
	movq	$-2, (%rbp)
	movq	%rcx, %rsi
	movq	(%rcx), %rcx
	testq	%rcx, %rcx
	je	.LBB8_8
# %bb.1:
	movq	16(%rsi), %rdx
	subq	%rcx, %rdx
	cmpq	$4096, %rdx                     # imm = 0x1000
	jb	.LBB8_7
# %bb.2:
	movq	-8(%rcx), %rax
	addq	$-8, %rcx
	subq	%rax, %rcx
	cmpq	$32, %rcx
	jae	.LBB8_3
# %bb.6:
	addq	$39, %rdx
	movq	%rax, %rcx
.LBB8_7:
	callq	"??3@YAXPEAX_K@Z"
	xorps	%xmm0, %xmm0
	movups	%xmm0, (%rsi)
	movq	$0, 16(%rsi)
.LBB8_8:
	addq	$40, %rsp
	popq	%rsi
	popq	%rbp
	retq
.LBB8_3:
.Ltmp100:
	callq	_invalid_parameter_noinfo_noreturn
.Ltmp101:
# %bb.4:
	int3
	.seh_handlerdata
	.long	("$cppxdata$??1?$vector@DV?$allocator@D@std@@@std@@QEAA@XZ")@IMGREL
	.section	.text,"xr",discard,"??1?$vector@DV?$allocator@D@std@@@std@@QEAA@XZ"
	.seh_endproc
	.def	"?dtor$5@?0???1?$vector@DV?$allocator@D@std@@@std@@QEAA@XZ@4HA";
	.scl	3;
	.type	32;
	.endef
	.p2align	4, 0x90
"?dtor$5@?0???1?$vector@DV?$allocator@D@std@@@std@@QEAA@XZ@4HA":
.seh_proc "?dtor$5@?0???1?$vector@DV?$allocator@D@std@@@std@@QEAA@XZ@4HA"
.LBB8_5:
	movq	%rdx, 16(%rsp)
	pushq	%rbp
	.seh_pushreg %rbp
	pushq	%rsi
	.seh_pushreg %rsi
	subq	$40, %rsp
	.seh_stackalloc 40
	leaq	32(%rdx), %rbp
	.seh_endprologue
	callq	__std_terminate
	int3
.Lfunc_end8:
	.seh_handlerdata
	.section	.text,"xr",discard,"??1?$vector@DV?$allocator@D@std@@@std@@QEAA@XZ"
	.seh_endproc
	.section	.xdata,"dr",associative,"??1?$vector@DV?$allocator@D@std@@@std@@QEAA@XZ"
	.p2align	2
"$cppxdata$??1?$vector@DV?$allocator@D@std@@@std@@QEAA@XZ":
	.long	429065506                       # MagicNumber
	.long	1                               # MaxState
	.long	("$stateUnwindMap$??1?$vector@DV?$allocator@D@std@@@std@@QEAA@XZ")@IMGREL # UnwindMap
	.long	0                               # NumTryBlocks
	.long	0                               # TryBlockMap
	.long	3                               # IPMapEntries
	.long	("$ip2state$??1?$vector@DV?$allocator@D@std@@@std@@QEAA@XZ")@IMGREL # IPToStateXData
	.long	32                              # UnwindHelp
	.long	0                               # ESTypeList
	.long	1                               # EHFlags
"$stateUnwindMap$??1?$vector@DV?$allocator@D@std@@@std@@QEAA@XZ":
	.long	-1                              # ToState
	.long	"?dtor$5@?0???1?$vector@DV?$allocator@D@std@@@std@@QEAA@XZ@4HA"@IMGREL # Action
"$ip2state$??1?$vector@DV?$allocator@D@std@@@std@@QEAA@XZ":
	.long	.Lfunc_begin8@IMGREL            # IP
	.long	-1                              # ToState
	.long	.Ltmp100@IMGREL+1               # IP
	.long	0                               # ToState
	.long	.Ltmp101@IMGREL+1               # IP
	.long	-1                              # ToState
	.section	.text,"xr",discard,"??1?$vector@DV?$allocator@D@std@@@std@@QEAA@XZ"
                                        # -- End function
	.def	"?_Throw_bad_array_new_length@std@@YAXXZ";
	.scl	2;
	.type	32;
	.endef
	.section	.text,"xr",discard,"?_Throw_bad_array_new_length@std@@YAXXZ"
	.globl	"?_Throw_bad_array_new_length@std@@YAXXZ" # -- Begin function ?_Throw_bad_array_new_length@std@@YAXXZ
	.p2align	4, 0x90
"?_Throw_bad_array_new_length@std@@YAXXZ": # @"?_Throw_bad_array_new_length@std@@YAXXZ"
.seh_proc "?_Throw_bad_array_new_length@std@@YAXXZ"
# %bb.0:
	subq	$56, %rsp
	.seh_stackalloc 56
	.seh_endprologue
	xorps	%xmm0, %xmm0
	movups	%xmm0, 40(%rsp)
	leaq	"??_C@_0BF@KINCDENJ@bad?5array?5new?5length?$AA@"(%rip), %rax
	movq	%rax, 40(%rsp)
	leaq	"??_7bad_array_new_length@std@@6B@"(%rip), %rax
	movq	%rax, 32(%rsp)
	leaq	"_TI3?AVbad_array_new_length@std@@"(%rip), %rdx
	leaq	32(%rsp), %rcx
	callq	_CxxThrowException
	int3
	.seh_endproc
                                        # -- End function
	.def	"??0bad_array_new_length@std@@QEAA@AEBV01@@Z";
	.scl	2;
	.type	32;
	.endef
	.section	.text,"xr",discard,"??0bad_array_new_length@std@@QEAA@AEBV01@@Z"
	.globl	"??0bad_array_new_length@std@@QEAA@AEBV01@@Z" # -- Begin function ??0bad_array_new_length@std@@QEAA@AEBV01@@Z
	.p2align	4, 0x90
"??0bad_array_new_length@std@@QEAA@AEBV01@@Z": # @"??0bad_array_new_length@std@@QEAA@AEBV01@@Z"
.Lfunc_begin9:
.seh_proc "??0bad_array_new_length@std@@QEAA@AEBV01@@Z"
	.seh_handler __CxxFrameHandler3, @unwind, @except
# %bb.0:
	pushq	%rbp
	.seh_pushreg %rbp
	pushq	%rsi
	.seh_pushreg %rsi
	subq	$40, %rsp
	.seh_stackalloc 40
	leaq	32(%rsp), %rbp
	.seh_setframe %rbp, 32
	.seh_endprologue
	movq	$-2, (%rbp)
	movq	%rcx, %rsi
	leaq	"??_7exception@std@@6B@"(%rip), %rax
	movq	%rax, (%rcx)
	leaq	8(%rcx), %rax
	xorps	%xmm0, %xmm0
	movups	%xmm0, 8(%rcx)
	leaq	8(%rdx), %rcx
.Ltmp102:
	movq	%rax, %rdx
	callq	__std_exception_copy
.Ltmp103:
# %bb.1:
	leaq	"??_7bad_array_new_length@std@@6B@"(%rip), %rax
	movq	%rax, (%rsi)
	movq	%rsi, %rax
	addq	$40, %rsp
	popq	%rsi
	popq	%rbp
	retq
	.seh_handlerdata
	.long	("$cppxdata$??0bad_array_new_length@std@@QEAA@AEBV01@@Z")@IMGREL
	.section	.text,"xr",discard,"??0bad_array_new_length@std@@QEAA@AEBV01@@Z"
	.seh_endproc
	.def	"?dtor$2@?0???0bad_array_new_length@std@@QEAA@AEBV01@@Z@4HA";
	.scl	3;
	.type	32;
	.endef
	.p2align	4, 0x90
"?dtor$2@?0???0bad_array_new_length@std@@QEAA@AEBV01@@Z@4HA":
.seh_proc "?dtor$2@?0???0bad_array_new_length@std@@QEAA@AEBV01@@Z@4HA"
.LBB10_2:
	movq	%rdx, 16(%rsp)
	pushq	%rbp
	.seh_pushreg %rbp
	pushq	%rsi
	.seh_pushreg %rsi
	subq	$40, %rsp
	.seh_stackalloc 40
	leaq	32(%rdx), %rbp
	.seh_endprologue
	callq	__std_terminate
	int3
.Lfunc_end9:
	.seh_handlerdata
	.section	.text,"xr",discard,"??0bad_array_new_length@std@@QEAA@AEBV01@@Z"
	.seh_endproc
	.section	.xdata,"dr",associative,"??0bad_array_new_length@std@@QEAA@AEBV01@@Z"
	.p2align	2
"$cppxdata$??0bad_array_new_length@std@@QEAA@AEBV01@@Z":
	.long	429065506                       # MagicNumber
	.long	1                               # MaxState
	.long	("$stateUnwindMap$??0bad_array_new_length@std@@QEAA@AEBV01@@Z")@IMGREL # UnwindMap
	.long	0                               # NumTryBlocks
	.long	0                               # TryBlockMap
	.long	3                               # IPMapEntries
	.long	("$ip2state$??0bad_array_new_length@std@@QEAA@AEBV01@@Z")@IMGREL # IPToStateXData
	.long	32                              # UnwindHelp
	.long	0                               # ESTypeList
	.long	1                               # EHFlags
"$stateUnwindMap$??0bad_array_new_length@std@@QEAA@AEBV01@@Z":
	.long	-1                              # ToState
	.long	"?dtor$2@?0???0bad_array_new_length@std@@QEAA@AEBV01@@Z@4HA"@IMGREL # Action
"$ip2state$??0bad_array_new_length@std@@QEAA@AEBV01@@Z":
	.long	.Lfunc_begin9@IMGREL            # IP
	.long	-1                              # ToState
	.long	.Ltmp102@IMGREL+1               # IP
	.long	0                               # ToState
	.long	.Ltmp103@IMGREL+1               # IP
	.long	-1                              # ToState
	.section	.text,"xr",discard,"??0bad_array_new_length@std@@QEAA@AEBV01@@Z"
                                        # -- End function
	.def	"??0bad_alloc@std@@QEAA@AEBV01@@Z";
	.scl	2;
	.type	32;
	.endef
	.section	.text,"xr",discard,"??0bad_alloc@std@@QEAA@AEBV01@@Z"
	.globl	"??0bad_alloc@std@@QEAA@AEBV01@@Z" # -- Begin function ??0bad_alloc@std@@QEAA@AEBV01@@Z
	.p2align	4, 0x90
"??0bad_alloc@std@@QEAA@AEBV01@@Z":     # @"??0bad_alloc@std@@QEAA@AEBV01@@Z"
.Lfunc_begin10:
.seh_proc "??0bad_alloc@std@@QEAA@AEBV01@@Z"
	.seh_handler __CxxFrameHandler3, @unwind, @except
# %bb.0:
	pushq	%rbp
	.seh_pushreg %rbp
	pushq	%rsi
	.seh_pushreg %rsi
	subq	$40, %rsp
	.seh_stackalloc 40
	leaq	32(%rsp), %rbp
	.seh_setframe %rbp, 32
	.seh_endprologue
	movq	$-2, (%rbp)
	movq	%rcx, %rsi
	leaq	"??_7exception@std@@6B@"(%rip), %rax
	movq	%rax, (%rcx)
	leaq	8(%rcx), %rax
	xorps	%xmm0, %xmm0
	movups	%xmm0, 8(%rcx)
	leaq	8(%rdx), %rcx
.Ltmp104:
	movq	%rax, %rdx
	callq	__std_exception_copy
.Ltmp105:
# %bb.1:
	leaq	"??_7bad_alloc@std@@6B@"(%rip), %rax
	movq	%rax, (%rsi)
	movq	%rsi, %rax
	addq	$40, %rsp
	popq	%rsi
	popq	%rbp
	retq
	.seh_handlerdata
	.long	("$cppxdata$??0bad_alloc@std@@QEAA@AEBV01@@Z")@IMGREL
	.section	.text,"xr",discard,"??0bad_alloc@std@@QEAA@AEBV01@@Z"
	.seh_endproc
	.def	"?dtor$2@?0???0bad_alloc@std@@QEAA@AEBV01@@Z@4HA";
	.scl	3;
	.type	32;
	.endef
	.p2align	4, 0x90
"?dtor$2@?0???0bad_alloc@std@@QEAA@AEBV01@@Z@4HA":
.seh_proc "?dtor$2@?0???0bad_alloc@std@@QEAA@AEBV01@@Z@4HA"
.LBB11_2:
	movq	%rdx, 16(%rsp)
	pushq	%rbp
	.seh_pushreg %rbp
	pushq	%rsi
	.seh_pushreg %rsi
	subq	$40, %rsp
	.seh_stackalloc 40
	leaq	32(%rdx), %rbp
	.seh_endprologue
	callq	__std_terminate
	int3
.Lfunc_end10:
	.seh_handlerdata
	.section	.text,"xr",discard,"??0bad_alloc@std@@QEAA@AEBV01@@Z"
	.seh_endproc
	.section	.xdata,"dr",associative,"??0bad_alloc@std@@QEAA@AEBV01@@Z"
	.p2align	2
"$cppxdata$??0bad_alloc@std@@QEAA@AEBV01@@Z":
	.long	429065506                       # MagicNumber
	.long	1                               # MaxState
	.long	("$stateUnwindMap$??0bad_alloc@std@@QEAA@AEBV01@@Z")@IMGREL # UnwindMap
	.long	0                               # NumTryBlocks
	.long	0                               # TryBlockMap
	.long	3                               # IPMapEntries
	.long	("$ip2state$??0bad_alloc@std@@QEAA@AEBV01@@Z")@IMGREL # IPToStateXData
	.long	32                              # UnwindHelp
	.long	0                               # ESTypeList
	.long	1                               # EHFlags
"$stateUnwindMap$??0bad_alloc@std@@QEAA@AEBV01@@Z":
	.long	-1                              # ToState
	.long	"?dtor$2@?0???0bad_alloc@std@@QEAA@AEBV01@@Z@4HA"@IMGREL # Action
"$ip2state$??0bad_alloc@std@@QEAA@AEBV01@@Z":
	.long	.Lfunc_begin10@IMGREL           # IP
	.long	-1                              # ToState
	.long	.Ltmp104@IMGREL+1               # IP
	.long	0                               # ToState
	.long	.Ltmp105@IMGREL+1               # IP
	.long	-1                              # ToState
	.section	.text,"xr",discard,"??0bad_alloc@std@@QEAA@AEBV01@@Z"
                                        # -- End function
	.def	"??0exception@std@@QEAA@AEBV01@@Z";
	.scl	2;
	.type	32;
	.endef
	.section	.text,"xr",discard,"??0exception@std@@QEAA@AEBV01@@Z"
	.globl	"??0exception@std@@QEAA@AEBV01@@Z" # -- Begin function ??0exception@std@@QEAA@AEBV01@@Z
	.p2align	4, 0x90
"??0exception@std@@QEAA@AEBV01@@Z":     # @"??0exception@std@@QEAA@AEBV01@@Z"
.Lfunc_begin11:
.seh_proc "??0exception@std@@QEAA@AEBV01@@Z"
	.seh_handler __CxxFrameHandler3, @unwind, @except
# %bb.0:
	pushq	%rbp
	.seh_pushreg %rbp
	pushq	%rsi
	.seh_pushreg %rsi
	subq	$40, %rsp
	.seh_stackalloc 40
	leaq	32(%rsp), %rbp
	.seh_setframe %rbp, 32
	.seh_endprologue
	movq	$-2, (%rbp)
	movq	%rcx, %rsi
	leaq	"??_7exception@std@@6B@"(%rip), %rax
	movq	%rax, (%rcx)
	leaq	8(%rcx), %rax
	xorps	%xmm0, %xmm0
	movups	%xmm0, 8(%rcx)
	leaq	8(%rdx), %rcx
.Ltmp106:
	movq	%rax, %rdx
	callq	__std_exception_copy
.Ltmp107:
# %bb.1:
	movq	%rsi, %rax
	addq	$40, %rsp
	popq	%rsi
	popq	%rbp
	retq
	.seh_handlerdata
	.long	("$cppxdata$??0exception@std@@QEAA@AEBV01@@Z")@IMGREL
	.section	.text,"xr",discard,"??0exception@std@@QEAA@AEBV01@@Z"
	.seh_endproc
	.def	"?dtor$2@?0???0exception@std@@QEAA@AEBV01@@Z@4HA";
	.scl	3;
	.type	32;
	.endef
	.p2align	4, 0x90
"?dtor$2@?0???0exception@std@@QEAA@AEBV01@@Z@4HA":
.seh_proc "?dtor$2@?0???0exception@std@@QEAA@AEBV01@@Z@4HA"
.LBB12_2:
	movq	%rdx, 16(%rsp)
	pushq	%rbp
	.seh_pushreg %rbp
	pushq	%rsi
	.seh_pushreg %rsi
	subq	$40, %rsp
	.seh_stackalloc 40
	leaq	32(%rdx), %rbp
	.seh_endprologue
	callq	__std_terminate
	int3
.Lfunc_end11:
	.seh_handlerdata
	.section	.text,"xr",discard,"??0exception@std@@QEAA@AEBV01@@Z"
	.seh_endproc
	.section	.xdata,"dr",associative,"??0exception@std@@QEAA@AEBV01@@Z"
	.p2align	2
"$cppxdata$??0exception@std@@QEAA@AEBV01@@Z":
	.long	429065506                       # MagicNumber
	.long	1                               # MaxState
	.long	("$stateUnwindMap$??0exception@std@@QEAA@AEBV01@@Z")@IMGREL # UnwindMap
	.long	0                               # NumTryBlocks
	.long	0                               # TryBlockMap
	.long	3                               # IPMapEntries
	.long	("$ip2state$??0exception@std@@QEAA@AEBV01@@Z")@IMGREL # IPToStateXData
	.long	32                              # UnwindHelp
	.long	0                               # ESTypeList
	.long	1                               # EHFlags
"$stateUnwindMap$??0exception@std@@QEAA@AEBV01@@Z":
	.long	-1                              # ToState
	.long	"?dtor$2@?0???0exception@std@@QEAA@AEBV01@@Z@4HA"@IMGREL # Action
"$ip2state$??0exception@std@@QEAA@AEBV01@@Z":
	.long	.Lfunc_begin11@IMGREL           # IP
	.long	-1                              # ToState
	.long	.Ltmp106@IMGREL+1               # IP
	.long	0                               # ToState
	.long	.Ltmp107@IMGREL+1               # IP
	.long	-1                              # ToState
	.section	.text,"xr",discard,"??0exception@std@@QEAA@AEBV01@@Z"
                                        # -- End function
	.def	"??_Gbad_array_new_length@std@@UEAAPEAXI@Z";
	.scl	2;
	.type	32;
	.endef
	.section	.text,"xr",discard,"??_Gbad_array_new_length@std@@UEAAPEAXI@Z"
	.globl	"??_Gbad_array_new_length@std@@UEAAPEAXI@Z" # -- Begin function ??_Gbad_array_new_length@std@@UEAAPEAXI@Z
	.p2align	4, 0x90
"??_Gbad_array_new_length@std@@UEAAPEAXI@Z": # @"??_Gbad_array_new_length@std@@UEAAPEAXI@Z"
.Lfunc_begin12:
.seh_proc "??_Gbad_array_new_length@std@@UEAAPEAXI@Z"
	.seh_handler __CxxFrameHandler3, @unwind, @except
# %bb.0:
	pushq	%rbp
	.seh_pushreg %rbp
	pushq	%rsi
	.seh_pushreg %rsi
	pushq	%rdi
	.seh_pushreg %rdi
	subq	$48, %rsp
	.seh_stackalloc 48
	leaq	48(%rsp), %rbp
	.seh_setframe %rbp, 48
	.seh_endprologue
	movq	$-2, -8(%rbp)
	movl	%edx, %edi
	movq	%rcx, %rsi
	leaq	"??_7exception@std@@6B@"(%rip), %rax
	movq	%rax, (%rcx)
	addq	$8, %rcx
.Ltmp108:
	callq	__std_exception_destroy
.Ltmp109:
# %bb.1:
	testl	%edi, %edi
	je	.LBB13_3
# %bb.2:
	movq	%rsi, %rcx
	callq	"??3@YAXPEAX@Z"
.LBB13_3:
	movq	%rsi, %rax
	addq	$48, %rsp
	popq	%rdi
	popq	%rsi
	popq	%rbp
	retq
	.seh_handlerdata
	.long	("$cppxdata$??_Gbad_array_new_length@std@@UEAAPEAXI@Z")@IMGREL
	.section	.text,"xr",discard,"??_Gbad_array_new_length@std@@UEAAPEAXI@Z"
	.seh_endproc
	.def	"?dtor$4@?0???_Gbad_array_new_length@std@@UEAAPEAXI@Z@4HA";
	.scl	3;
	.type	32;
	.endef
	.p2align	4, 0x90
"?dtor$4@?0???_Gbad_array_new_length@std@@UEAAPEAXI@Z@4HA":
.seh_proc "?dtor$4@?0???_Gbad_array_new_length@std@@UEAAPEAXI@Z@4HA"
.LBB13_4:
	movq	%rdx, 16(%rsp)
	pushq	%rbp
	.seh_pushreg %rbp
	pushq	%rsi
	.seh_pushreg %rsi
	pushq	%rdi
	.seh_pushreg %rdi
	subq	$32, %rsp
	.seh_stackalloc 32
	leaq	48(%rdx), %rbp
	.seh_endprologue
	callq	__std_terminate
	int3
.Lfunc_end12:
	.seh_handlerdata
	.section	.text,"xr",discard,"??_Gbad_array_new_length@std@@UEAAPEAXI@Z"
	.seh_endproc
	.section	.xdata,"dr",associative,"??_Gbad_array_new_length@std@@UEAAPEAXI@Z"
	.p2align	2
"$cppxdata$??_Gbad_array_new_length@std@@UEAAPEAXI@Z":
	.long	429065506                       # MagicNumber
	.long	1                               # MaxState
	.long	("$stateUnwindMap$??_Gbad_array_new_length@std@@UEAAPEAXI@Z")@IMGREL # UnwindMap
	.long	0                               # NumTryBlocks
	.long	0                               # TryBlockMap
	.long	3                               # IPMapEntries
	.long	("$ip2state$??_Gbad_array_new_length@std@@UEAAPEAXI@Z")@IMGREL # IPToStateXData
	.long	40                              # UnwindHelp
	.long	0                               # ESTypeList
	.long	1                               # EHFlags
"$stateUnwindMap$??_Gbad_array_new_length@std@@UEAAPEAXI@Z":
	.long	-1                              # ToState
	.long	"?dtor$4@?0???_Gbad_array_new_length@std@@UEAAPEAXI@Z@4HA"@IMGREL # Action
"$ip2state$??_Gbad_array_new_length@std@@UEAAPEAXI@Z":
	.long	.Lfunc_begin12@IMGREL           # IP
	.long	-1                              # ToState
	.long	.Ltmp108@IMGREL+1               # IP
	.long	0                               # ToState
	.long	.Ltmp109@IMGREL+1               # IP
	.long	-1                              # ToState
	.section	.text,"xr",discard,"??_Gbad_array_new_length@std@@UEAAPEAXI@Z"
                                        # -- End function
	.def	"?what@exception@std@@UEBAPEBDXZ";
	.scl	2;
	.type	32;
	.endef
	.section	.text,"xr",discard,"?what@exception@std@@UEBAPEBDXZ"
	.globl	"?what@exception@std@@UEBAPEBDXZ" # -- Begin function ?what@exception@std@@UEBAPEBDXZ
	.p2align	4, 0x90
"?what@exception@std@@UEBAPEBDXZ":      # @"?what@exception@std@@UEBAPEBDXZ"
# %bb.0:
	movq	8(%rcx), %rcx
	testq	%rcx, %rcx
	leaq	"??_C@_0BC@EOODALEL@Unknown?5exception?$AA@"(%rip), %rax
	cmovneq	%rcx, %rax
	retq
                                        # -- End function
	.def	"??_Gbad_alloc@std@@UEAAPEAXI@Z";
	.scl	2;
	.type	32;
	.endef
	.section	.text,"xr",discard,"??_Gbad_alloc@std@@UEAAPEAXI@Z"
	.globl	"??_Gbad_alloc@std@@UEAAPEAXI@Z" # -- Begin function ??_Gbad_alloc@std@@UEAAPEAXI@Z
	.p2align	4, 0x90
"??_Gbad_alloc@std@@UEAAPEAXI@Z":       # @"??_Gbad_alloc@std@@UEAAPEAXI@Z"
.Lfunc_begin13:
.seh_proc "??_Gbad_alloc@std@@UEAAPEAXI@Z"
	.seh_handler __CxxFrameHandler3, @unwind, @except
# %bb.0:
	pushq	%rbp
	.seh_pushreg %rbp
	pushq	%rsi
	.seh_pushreg %rsi
	pushq	%rdi
	.seh_pushreg %rdi
	subq	$48, %rsp
	.seh_stackalloc 48
	leaq	48(%rsp), %rbp
	.seh_setframe %rbp, 48
	.seh_endprologue
	movq	$-2, -8(%rbp)
	movl	%edx, %edi
	movq	%rcx, %rsi
	leaq	"??_7exception@std@@6B@"(%rip), %rax
	movq	%rax, (%rcx)
	addq	$8, %rcx
.Ltmp110:
	callq	__std_exception_destroy
.Ltmp111:
# %bb.1:
	testl	%edi, %edi
	je	.LBB15_3
# %bb.2:
	movq	%rsi, %rcx
	callq	"??3@YAXPEAX@Z"
.LBB15_3:
	movq	%rsi, %rax
	addq	$48, %rsp
	popq	%rdi
	popq	%rsi
	popq	%rbp
	retq
	.seh_handlerdata
	.long	("$cppxdata$??_Gbad_alloc@std@@UEAAPEAXI@Z")@IMGREL
	.section	.text,"xr",discard,"??_Gbad_alloc@std@@UEAAPEAXI@Z"
	.seh_endproc
	.def	"?dtor$4@?0???_Gbad_alloc@std@@UEAAPEAXI@Z@4HA";
	.scl	3;
	.type	32;
	.endef
	.p2align	4, 0x90
"?dtor$4@?0???_Gbad_alloc@std@@UEAAPEAXI@Z@4HA":
.seh_proc "?dtor$4@?0???_Gbad_alloc@std@@UEAAPEAXI@Z@4HA"
.LBB15_4:
	movq	%rdx, 16(%rsp)
	pushq	%rbp
	.seh_pushreg %rbp
	pushq	%rsi
	.seh_pushreg %rsi
	pushq	%rdi
	.seh_pushreg %rdi
	subq	$32, %rsp
	.seh_stackalloc 32
	leaq	48(%rdx), %rbp
	.seh_endprologue
	callq	__std_terminate
	int3
.Lfunc_end13:
	.seh_handlerdata
	.section	.text,"xr",discard,"??_Gbad_alloc@std@@UEAAPEAXI@Z"
	.seh_endproc
	.section	.xdata,"dr",associative,"??_Gbad_alloc@std@@UEAAPEAXI@Z"
	.p2align	2
"$cppxdata$??_Gbad_alloc@std@@UEAAPEAXI@Z":
	.long	429065506                       # MagicNumber
	.long	1                               # MaxState
	.long	("$stateUnwindMap$??_Gbad_alloc@std@@UEAAPEAXI@Z")@IMGREL # UnwindMap
	.long	0                               # NumTryBlocks
	.long	0                               # TryBlockMap
	.long	3                               # IPMapEntries
	.long	("$ip2state$??_Gbad_alloc@std@@UEAAPEAXI@Z")@IMGREL # IPToStateXData
	.long	40                              # UnwindHelp
	.long	0                               # ESTypeList
	.long	1                               # EHFlags
"$stateUnwindMap$??_Gbad_alloc@std@@UEAAPEAXI@Z":
	.long	-1                              # ToState
	.long	"?dtor$4@?0???_Gbad_alloc@std@@UEAAPEAXI@Z@4HA"@IMGREL # Action
"$ip2state$??_Gbad_alloc@std@@UEAAPEAXI@Z":
	.long	.Lfunc_begin13@IMGREL           # IP
	.long	-1                              # ToState
	.long	.Ltmp110@IMGREL+1               # IP
	.long	0                               # ToState
	.long	.Ltmp111@IMGREL+1               # IP
	.long	-1                              # ToState
	.section	.text,"xr",discard,"??_Gbad_alloc@std@@UEAAPEAXI@Z"
                                        # -- End function
	.def	"??_Gexception@std@@UEAAPEAXI@Z";
	.scl	2;
	.type	32;
	.endef
	.section	.text,"xr",discard,"??_Gexception@std@@UEAAPEAXI@Z"
	.globl	"??_Gexception@std@@UEAAPEAXI@Z" # -- Begin function ??_Gexception@std@@UEAAPEAXI@Z
	.p2align	4, 0x90
"??_Gexception@std@@UEAAPEAXI@Z":       # @"??_Gexception@std@@UEAAPEAXI@Z"
.Lfunc_begin14:
.seh_proc "??_Gexception@std@@UEAAPEAXI@Z"
	.seh_handler __CxxFrameHandler3, @unwind, @except
# %bb.0:
	pushq	%rbp
	.seh_pushreg %rbp
	pushq	%rsi
	.seh_pushreg %rsi
	pushq	%rdi
	.seh_pushreg %rdi
	subq	$48, %rsp
	.seh_stackalloc 48
	leaq	48(%rsp), %rbp
	.seh_setframe %rbp, 48
	.seh_endprologue
	movq	$-2, -8(%rbp)
	movl	%edx, %edi
	movq	%rcx, %rsi
	leaq	"??_7exception@std@@6B@"(%rip), %rax
	movq	%rax, (%rcx)
	addq	$8, %rcx
.Ltmp112:
	callq	__std_exception_destroy
.Ltmp113:
# %bb.1:
	testl	%edi, %edi
	je	.LBB16_3
# %bb.2:
	movq	%rsi, %rcx
	callq	"??3@YAXPEAX@Z"
.LBB16_3:
	movq	%rsi, %rax
	addq	$48, %rsp
	popq	%rdi
	popq	%rsi
	popq	%rbp
	retq
	.seh_handlerdata
	.long	("$cppxdata$??_Gexception@std@@UEAAPEAXI@Z")@IMGREL
	.section	.text,"xr",discard,"??_Gexception@std@@UEAAPEAXI@Z"
	.seh_endproc
	.def	"?dtor$4@?0???_Gexception@std@@UEAAPEAXI@Z@4HA";
	.scl	3;
	.type	32;
	.endef
	.p2align	4, 0x90
"?dtor$4@?0???_Gexception@std@@UEAAPEAXI@Z@4HA":
.seh_proc "?dtor$4@?0???_Gexception@std@@UEAAPEAXI@Z@4HA"
.LBB16_4:
	movq	%rdx, 16(%rsp)
	pushq	%rbp
	.seh_pushreg %rbp
	pushq	%rsi
	.seh_pushreg %rsi
	pushq	%rdi
	.seh_pushreg %rdi
	subq	$32, %rsp
	.seh_stackalloc 32
	leaq	48(%rdx), %rbp
	.seh_endprologue
	callq	__std_terminate
	int3
.Lfunc_end14:
	.seh_handlerdata
	.section	.text,"xr",discard,"??_Gexception@std@@UEAAPEAXI@Z"
	.seh_endproc
	.section	.xdata,"dr",associative,"??_Gexception@std@@UEAAPEAXI@Z"
	.p2align	2
"$cppxdata$??_Gexception@std@@UEAAPEAXI@Z":
	.long	429065506                       # MagicNumber
	.long	1                               # MaxState
	.long	("$stateUnwindMap$??_Gexception@std@@UEAAPEAXI@Z")@IMGREL # UnwindMap
	.long	0                               # NumTryBlocks
	.long	0                               # TryBlockMap
	.long	3                               # IPMapEntries
	.long	("$ip2state$??_Gexception@std@@UEAAPEAXI@Z")@IMGREL # IPToStateXData
	.long	40                              # UnwindHelp
	.long	0                               # ESTypeList
	.long	1                               # EHFlags
"$stateUnwindMap$??_Gexception@std@@UEAAPEAXI@Z":
	.long	-1                              # ToState
	.long	"?dtor$4@?0???_Gexception@std@@UEAAPEAXI@Z@4HA"@IMGREL # Action
"$ip2state$??_Gexception@std@@UEAAPEAXI@Z":
	.long	.Lfunc_begin14@IMGREL           # IP
	.long	-1                              # ToState
	.long	.Ltmp112@IMGREL+1               # IP
	.long	0                               # ToState
	.long	.Ltmp113@IMGREL+1               # IP
	.long	-1                              # ToState
	.section	.text,"xr",discard,"??_Gexception@std@@UEAAPEAXI@Z"
                                        # -- End function
	.def	"?setstate@?$basic_ios@DU?$char_traits@D@std@@@std@@QEAAXH_N@Z";
	.scl	2;
	.type	32;
	.endef
	.section	.text,"xr",discard,"?setstate@?$basic_ios@DU?$char_traits@D@std@@@std@@QEAAXH_N@Z"
	.globl	"?setstate@?$basic_ios@DU?$char_traits@D@std@@@std@@QEAAXH_N@Z" # -- Begin function ?setstate@?$basic_ios@DU?$char_traits@D@std@@@std@@QEAAXH_N@Z
	.p2align	4, 0x90
"?setstate@?$basic_ios@DU?$char_traits@D@std@@@std@@QEAAXH_N@Z": # @"?setstate@?$basic_ios@DU?$char_traits@D@std@@@std@@QEAAXH_N@Z"
.seh_proc "?setstate@?$basic_ios@DU?$char_traits@D@std@@@std@@QEAAXH_N@Z"
# %bb.0:
	pushq	%rsi
	.seh_pushreg %rsi
	pushq	%rdi
	.seh_pushreg %rdi
	pushq	%rbx
	.seh_pushreg %rbx
	subq	$96, %rsp
	.seh_stackalloc 96
	.seh_endprologue
	orl	16(%rcx), %edx
	xorl	%eax, %eax
	cmpq	$0, 72(%rcx)
	sete	%al
	shll	$2, %eax
	andl	$23, %edx
	orl	%eax, %edx
	movl	%edx, 16(%rcx)
	andl	20(%rcx), %edx
	jne	.LBB17_1
# %bb.3:
	addq	$96, %rsp
	popq	%rbx
	popq	%rdi
	popq	%rsi
	retq
.LBB17_1:
	testb	%r8b, %r8b
	je	.LBB17_2
# %bb.4:
	xorl	%ecx, %ecx
	xorl	%edx, %edx
	callq	_CxxThrowException
.LBB17_2:
	testb	$2, %dl
	leaq	"??_C@_0BF@OOHOMBOF@ios_base?3?3eofbit?5set?$AA@"(%rip), %rax
	leaq	"??_C@_0BG@FMKFHCIL@ios_base?3?3failbit?5set?$AA@"(%rip), %rcx
	cmoveq	%rax, %rcx
	testb	$4, %dl
	leaq	"??_C@_0BF@PHHKMMFD@ios_base?3?3badbit?5set?$AA@"(%rip), %rsi
	cmoveq	%rcx, %rsi
	leaq	40(%rsp), %rdi
	movq	%rdi, %rcx
	movl	$1, %edx
	callq	"?make_error_code@std@@YA?AVerror_code@1@W4io_errc@1@@Z"
	leaq	56(%rsp), %rbx
	movq	%rbx, %rcx
	movq	%rsi, %rdx
	movq	%rdi, %r8
	callq	"??0failure@ios_base@std@@QEAA@PEBDAEBVerror_code@2@@Z"
	leaq	"_TI5?AVfailure@ios_base@std@@"(%rip), %rdx
	movq	%rbx, %rcx
	callq	_CxxThrowException
	int3
	.seh_endproc
                                        # -- End function
	.def	"??1sentry@?$basic_ostream@DU?$char_traits@D@std@@@std@@QEAA@XZ";
	.scl	2;
	.type	32;
	.endef
	.section	.text,"xr",discard,"??1sentry@?$basic_ostream@DU?$char_traits@D@std@@@std@@QEAA@XZ"
	.globl	"??1sentry@?$basic_ostream@DU?$char_traits@D@std@@@std@@QEAA@XZ" # -- Begin function ??1sentry@?$basic_ostream@DU?$char_traits@D@std@@@std@@QEAA@XZ
	.p2align	4, 0x90
"??1sentry@?$basic_ostream@DU?$char_traits@D@std@@@std@@QEAA@XZ": # @"??1sentry@?$basic_ostream@DU?$char_traits@D@std@@@std@@QEAA@XZ"
.Lfunc_begin15:
.seh_proc "??1sentry@?$basic_ostream@DU?$char_traits@D@std@@@std@@QEAA@XZ"
	.seh_handler __CxxFrameHandler3, @unwind, @except
# %bb.0:
	pushq	%rbp
	.seh_pushreg %rbp
	pushq	%rsi
	.seh_pushreg %rsi
	subq	$40, %rsp
	.seh_stackalloc 40
	leaq	32(%rsp), %rbp
	.seh_setframe %rbp, 32
	.seh_endprologue
	movq	$-2, (%rbp)
	movq	%rcx, %rsi
	callq	"?uncaught_exception@std@@YA_NXZ"
	testb	%al, %al
	jne	.LBB18_2
# %bb.1:
	movq	(%rsi), %rcx
.Ltmp114:
	callq	"?_Osfx@?$basic_ostream@DU?$char_traits@D@std@@@std@@QEAAXXZ"
.Ltmp115:
.LBB18_2:
	movq	(%rsi), %rax
	movq	(%rax), %rcx
	movslq	4(%rcx), %rcx
	movq	72(%rax,%rcx), %rcx
	testq	%rcx, %rcx
	je	.LBB18_4
# %bb.3:
	movq	(%rcx), %rax
.Ltmp116:
	callq	*16(%rax)
.Ltmp117:
.LBB18_4:
	nop
	addq	$40, %rsp
	popq	%rsi
	popq	%rbp
	retq
	.seh_handlerdata
	.long	("$cppxdata$??1sentry@?$basic_ostream@DU?$char_traits@D@std@@@std@@QEAA@XZ")@IMGREL
	.section	.text,"xr",discard,"??1sentry@?$basic_ostream@DU?$char_traits@D@std@@@std@@QEAA@XZ"
	.seh_endproc
	.def	"?dtor$5@?0???1sentry@?$basic_ostream@DU?$char_traits@D@std@@@std@@QEAA@XZ@4HA";
	.scl	3;
	.type	32;
	.endef
	.p2align	4, 0x90
"?dtor$5@?0???1sentry@?$basic_ostream@DU?$char_traits@D@std@@@std@@QEAA@XZ@4HA":
.seh_proc "?dtor$5@?0???1sentry@?$basic_ostream@DU?$char_traits@D@std@@@std@@QEAA@XZ@4HA"
.LBB18_5:
	movq	%rdx, 16(%rsp)
	pushq	%rbp
	.seh_pushreg %rbp
	pushq	%rsi
	.seh_pushreg %rsi
	subq	$40, %rsp
	.seh_stackalloc 40
	leaq	32(%rdx), %rbp
	.seh_endprologue
	callq	__std_terminate
	int3
	.seh_handlerdata
	.section	.text,"xr",discard,"??1sentry@?$basic_ostream@DU?$char_traits@D@std@@@std@@QEAA@XZ"
	.seh_endproc
	.def	"?dtor$6@?0???1sentry@?$basic_ostream@DU?$char_traits@D@std@@@std@@QEAA@XZ@4HA";
	.scl	3;
	.type	32;
	.endef
	.p2align	4, 0x90
"?dtor$6@?0???1sentry@?$basic_ostream@DU?$char_traits@D@std@@@std@@QEAA@XZ@4HA":
.seh_proc "?dtor$6@?0???1sentry@?$basic_ostream@DU?$char_traits@D@std@@@std@@QEAA@XZ@4HA"
.LBB18_6:
	movq	%rdx, 16(%rsp)
	pushq	%rbp
	.seh_pushreg %rbp
	pushq	%rsi
	.seh_pushreg %rsi
	subq	$40, %rsp
	.seh_stackalloc 40
	leaq	32(%rdx), %rbp
	.seh_endprologue
	callq	__std_terminate
	int3
.Lfunc_end15:
	.seh_handlerdata
	.section	.text,"xr",discard,"??1sentry@?$basic_ostream@DU?$char_traits@D@std@@@std@@QEAA@XZ"
	.seh_endproc
	.section	.xdata,"dr",associative,"??1sentry@?$basic_ostream@DU?$char_traits@D@std@@@std@@QEAA@XZ"
	.p2align	2
"$cppxdata$??1sentry@?$basic_ostream@DU?$char_traits@D@std@@@std@@QEAA@XZ":
	.long	429065506                       # MagicNumber
	.long	2                               # MaxState
	.long	("$stateUnwindMap$??1sentry@?$basic_ostream@DU?$char_traits@D@std@@@std@@QEAA@XZ")@IMGREL # UnwindMap
	.long	0                               # NumTryBlocks
	.long	0                               # TryBlockMap
	.long	4                               # IPMapEntries
	.long	("$ip2state$??1sentry@?$basic_ostream@DU?$char_traits@D@std@@@std@@QEAA@XZ")@IMGREL # IPToStateXData
	.long	32                              # UnwindHelp
	.long	0                               # ESTypeList
	.long	1                               # EHFlags
"$stateUnwindMap$??1sentry@?$basic_ostream@DU?$char_traits@D@std@@@std@@QEAA@XZ":
	.long	-1                              # ToState
	.long	"?dtor$6@?0???1sentry@?$basic_ostream@DU?$char_traits@D@std@@@std@@QEAA@XZ@4HA"@IMGREL # Action
	.long	-1                              # ToState
	.long	"?dtor$5@?0???1sentry@?$basic_ostream@DU?$char_traits@D@std@@@std@@QEAA@XZ@4HA"@IMGREL # Action
"$ip2state$??1sentry@?$basic_ostream@DU?$char_traits@D@std@@@std@@QEAA@XZ":
	.long	.Lfunc_begin15@IMGREL           # IP
	.long	-1                              # ToState
	.long	.Ltmp114@IMGREL+1               # IP
	.long	1                               # ToState
	.long	.Ltmp116@IMGREL+1               # IP
	.long	0                               # ToState
	.long	.Ltmp117@IMGREL+1               # IP
	.long	-1                              # ToState
	.section	.text,"xr",discard,"??1sentry@?$basic_ostream@DU?$char_traits@D@std@@@std@@QEAA@XZ"
                                        # -- End function
	.def	"?flush@?$basic_ostream@DU?$char_traits@D@std@@@std@@QEAAAEAV12@XZ";
	.scl	2;
	.type	32;
	.endef
	.section	.text,"xr",discard,"?flush@?$basic_ostream@DU?$char_traits@D@std@@@std@@QEAAAEAV12@XZ"
	.globl	"?flush@?$basic_ostream@DU?$char_traits@D@std@@@std@@QEAAAEAV12@XZ" # -- Begin function ?flush@?$basic_ostream@DU?$char_traits@D@std@@@std@@QEAAAEAV12@XZ
	.p2align	4, 0x90
"?flush@?$basic_ostream@DU?$char_traits@D@std@@@std@@QEAAAEAV12@XZ": # @"?flush@?$basic_ostream@DU?$char_traits@D@std@@@std@@QEAAAEAV12@XZ"
.Lfunc_begin16:
.seh_proc "?flush@?$basic_ostream@DU?$char_traits@D@std@@@std@@QEAAAEAV12@XZ"
	.seh_handler __CxxFrameHandler3, @unwind, @except
# %bb.0:
	pushq	%rbp
	.seh_pushreg %rbp
	pushq	%rsi
	.seh_pushreg %rsi
	pushq	%rdi
	.seh_pushreg %rdi
	subq	$160, %rsp
	.seh_stackalloc 160
	leaq	128(%rsp), %rbp
	.seh_setframe %rbp, 128
	.seh_endprologue
	movq	$-2, 24(%rbp)
	movq	%rcx, %rdi
	movq	(%rcx), %rax
	movslq	4(%rax), %rcx
	movq	72(%rdi,%rcx), %rsi
	testq	%rsi, %rsi
	je	.LBB19_24
# %bb.1:
	movq	%rdi, (%rbp)
	movslq	4(%rax), %rax
	movq	72(%rdi,%rax), %rcx
	testq	%rcx, %rcx
	je	.LBB19_3
# %bb.2:
	movq	(%rcx), %rax
	callq	*8(%rax)
.LBB19_3:
	movq	(%rdi), %rax
	movslq	4(%rax), %rax
	cmpl	$0, 16(%rdi,%rax)
	je	.LBB19_5
# %bb.4:
	movb	$0, 8(%rbp)
	cmpb	$0, 8(%rbp)
	jne	.LBB19_11
	jmp	.LBB19_20
.LBB19_5:
	movq	80(%rdi,%rax), %rcx
	testq	%rcx, %rcx
	je	.LBB19_7
# %bb.6:
	cmpq	%rdi, %rcx
	je	.LBB19_7
# %bb.8:
.Ltmp118:
	callq	"?flush@?$basic_ostream@DU?$char_traits@D@std@@@std@@QEAAAEAV12@XZ"
.Ltmp119:
# %bb.9:
	movq	(%rdi), %rax
	movslq	4(%rax), %rax
	cmpl	$0, 16(%rdi,%rax)
	sete	8(%rbp)
	cmpb	$0, 8(%rbp)
	jne	.LBB19_11
	jmp	.LBB19_20
.LBB19_7:
	movb	$1, 8(%rbp)
	cmpb	$0, 8(%rbp)
	je	.LBB19_20
.LBB19_11:
	movq	%rdi, -8(%rbp)                  # 8-byte Spill
	movq	(%rsi), %rax
.Ltmp120:
	movq	%rsi, %rcx
	callq	*104(%rax)
.Ltmp121:
# %bb.12:
	xorl	%ecx, %ecx
	cmpl	$-1, %eax
	sete	%cl
	shll	$2, %ecx
	movl	%ecx, 20(%rbp)                  # 4-byte Spill
.LBB19_13:                              # Block address taken
$ehgcr_19_13:
	movq	-8(%rbp), %rdi                  # 8-byte Reload
	movq	(%rdi), %rax
	movslq	4(%rax), %rcx
	movl	16(%rdi,%rcx), %eax
	xorl	%edx, %edx
	cmpq	$0, 72(%rdi,%rcx)
	sete	%dl
	shll	$2, %edx
	orl	20(%rbp), %edx                  # 4-byte Folded Reload
	andl	$23, %eax
	orl	%edx, %eax
	movl	%eax, 16(%rdi,%rcx)
	andl	20(%rdi,%rcx), %eax
	jne	.LBB19_14
.LBB19_20:
	callq	"?uncaught_exception@std@@YA_NXZ"
	testb	%al, %al
	jne	.LBB19_22
# %bb.21:
	movq	(%rbp), %rcx
.Ltmp128:
	callq	"?_Osfx@?$basic_ostream@DU?$char_traits@D@std@@@std@@QEAAXXZ"
.Ltmp129:
.LBB19_22:
	movq	(%rbp), %rax
	movq	(%rax), %rcx
	movslq	4(%rcx), %rcx
	movq	72(%rax,%rcx), %rcx
	testq	%rcx, %rcx
	je	.LBB19_24
# %bb.23:
	movq	(%rcx), %rax
.Ltmp130:
	callq	*16(%rax)
.Ltmp131:
.LBB19_24:
	movq	%rdi, %rax
	addq	$160, %rsp
	popq	%rdi
	popq	%rsi
	popq	%rbp
	retq
.LBB19_14:
	testb	$2, %al
	leaq	"??_C@_0BF@OOHOMBOF@ios_base?3?3eofbit?5set?$AA@"(%rip), %rcx
	leaq	"??_C@_0BG@FMKFHCIL@ios_base?3?3failbit?5set?$AA@"(%rip), %rdx
	cmoveq	%rcx, %rdx
	testb	$4, %al
	leaq	"??_C@_0BF@PHHKMMFD@ios_base?3?3badbit?5set?$AA@"(%rip), %rsi
	cmoveq	%rdx, %rsi
	leaq	-48(%rbp), %rcx
	movl	$1, %edx
	callq	"?make_error_code@std@@YA?AVerror_code@1@W4io_errc@1@@Z"
	movups	-48(%rbp), %xmm0
	movaps	%xmm0, -32(%rbp)
.Ltmp124:
	leaq	-88(%rbp), %rcx
	leaq	-32(%rbp), %rdx
	movq	%rsi, %r8
	callq	"??0system_error@std@@QEAA@Verror_code@1@PEBD@Z"
.Ltmp125:
# %bb.15:
	leaq	"??_7failure@ios_base@std@@6B@"(%rip), %rax
	movq	%rax, -88(%rbp)
.Ltmp126:
	leaq	"_TI5?AVfailure@ios_base@std@@"(%rip), %rdx
	leaq	-88(%rbp), %rcx
	callq	_CxxThrowException
.Ltmp127:
# %bb.16:
	int3
	.seh_handlerdata
	.long	("$cppxdata$?flush@?$basic_ostream@DU?$char_traits@D@std@@@std@@QEAAAEAV12@XZ")@IMGREL
	.section	.text,"xr",discard,"?flush@?$basic_ostream@DU?$char_traits@D@std@@@std@@QEAAAEAV12@XZ"
	.seh_endproc
	.def	"?catch$17@?0??flush@?$basic_ostream@DU?$char_traits@D@std@@@std@@QEAAAEAV12@XZ@4HA";
	.scl	3;
	.type	32;
	.endef
	.p2align	4, 0x90
"?catch$17@?0??flush@?$basic_ostream@DU?$char_traits@D@std@@@std@@QEAAAEAV12@XZ@4HA":
.seh_proc "?catch$17@?0??flush@?$basic_ostream@DU?$char_traits@D@std@@@std@@QEAAAEAV12@XZ@4HA"
	.seh_handler __CxxFrameHandler3, @unwind, @except
.LBB19_17:
	movq	%rdx, 16(%rsp)
	pushq	%rbp
	.seh_pushreg %rbp
	pushq	%rsi
	.seh_pushreg %rsi
	pushq	%rdi
	.seh_pushreg %rdi
	subq	$32, %rsp
	.seh_stackalloc 32
	leaq	128(%rdx), %rbp
	.seh_endprologue
	movq	-8(%rbp), %rdx                  # 8-byte Reload
	movq	(%rdx), %rax
	movslq	4(%rax), %rcx
	addq	%rdx, %rcx
.Ltmp122:
	movl	$4, %edx
	movb	$1, %r8b
	callq	"?setstate@?$basic_ios@DU?$char_traits@D@std@@@std@@QEAAXH_N@Z"
.Ltmp123:
# %bb.18:
	movl	$0, 20(%rbp)                    # 4-byte Folded Spill
	leaq	.LBB19_13(%rip), %rax
	addq	$32, %rsp
	popq	%rdi
	popq	%rsi
	popq	%rbp
	retq                                    # CATCHRET
	.seh_handlerdata
	.long	("$cppxdata$?flush@?$basic_ostream@DU?$char_traits@D@std@@@std@@QEAAAEAV12@XZ")@IMGREL
	.section	.text,"xr",discard,"?flush@?$basic_ostream@DU?$char_traits@D@std@@@std@@QEAAAEAV12@XZ"
	.seh_endproc
	.def	"?dtor$19@?0??flush@?$basic_ostream@DU?$char_traits@D@std@@@std@@QEAAAEAV12@XZ@4HA";
	.scl	3;
	.type	32;
	.endef
	.p2align	4, 0x90
"?dtor$19@?0??flush@?$basic_ostream@DU?$char_traits@D@std@@@std@@QEAAAEAV12@XZ@4HA":
.seh_proc "?dtor$19@?0??flush@?$basic_ostream@DU?$char_traits@D@std@@@std@@QEAAAEAV12@XZ@4HA"
.LBB19_19:
	movq	%rdx, 16(%rsp)
	pushq	%rbp
	.seh_pushreg %rbp
	pushq	%rsi
	.seh_pushreg %rsi
	pushq	%rdi
	.seh_pushreg %rdi
	subq	$32, %rsp
	.seh_stackalloc 32
	leaq	128(%rdx), %rbp
	.seh_endprologue
	movq	%rbp, %rcx
	callq	"??1sentry@?$basic_ostream@DU?$char_traits@D@std@@@std@@QEAA@XZ"
	nop
	addq	$32, %rsp
	popq	%rdi
	popq	%rsi
	popq	%rbp
	retq                                    # CLEANUPRET
	.seh_handlerdata
	.section	.text,"xr",discard,"?flush@?$basic_ostream@DU?$char_traits@D@std@@@std@@QEAAAEAV12@XZ"
	.seh_endproc
	.def	"?dtor$25@?0??flush@?$basic_ostream@DU?$char_traits@D@std@@@std@@QEAAAEAV12@XZ@4HA";
	.scl	3;
	.type	32;
	.endef
	.p2align	4, 0x90
"?dtor$25@?0??flush@?$basic_ostream@DU?$char_traits@D@std@@@std@@QEAAAEAV12@XZ@4HA":
.seh_proc "?dtor$25@?0??flush@?$basic_ostream@DU?$char_traits@D@std@@@std@@QEAAAEAV12@XZ@4HA"
.LBB19_25:
	movq	%rdx, 16(%rsp)
	pushq	%rbp
	.seh_pushreg %rbp
	pushq	%rsi
	.seh_pushreg %rsi
	pushq	%rdi
	.seh_pushreg %rdi
	subq	$32, %rsp
	.seh_stackalloc 32
	leaq	128(%rdx), %rbp
	.seh_endprologue
	callq	__std_terminate
	int3
	.seh_handlerdata
	.section	.text,"xr",discard,"?flush@?$basic_ostream@DU?$char_traits@D@std@@@std@@QEAAAEAV12@XZ"
	.seh_endproc
	.def	"?dtor$26@?0??flush@?$basic_ostream@DU?$char_traits@D@std@@@std@@QEAAAEAV12@XZ@4HA";
	.scl	3;
	.type	32;
	.endef
	.p2align	4, 0x90
"?dtor$26@?0??flush@?$basic_ostream@DU?$char_traits@D@std@@@std@@QEAAAEAV12@XZ@4HA":
.seh_proc "?dtor$26@?0??flush@?$basic_ostream@DU?$char_traits@D@std@@@std@@QEAAAEAV12@XZ@4HA"
.LBB19_26:
	movq	%rdx, 16(%rsp)
	pushq	%rbp
	.seh_pushreg %rbp
	pushq	%rsi
	.seh_pushreg %rsi
	pushq	%rdi
	.seh_pushreg %rdi
	subq	$32, %rsp
	.seh_stackalloc 32
	leaq	128(%rdx), %rbp
	.seh_endprologue
	callq	__std_terminate
	int3
	.seh_handlerdata
	.section	.text,"xr",discard,"?flush@?$basic_ostream@DU?$char_traits@D@std@@@std@@QEAAAEAV12@XZ"
	.seh_endproc
	.def	"?dtor$27@?0??flush@?$basic_ostream@DU?$char_traits@D@std@@@std@@QEAAAEAV12@XZ@4HA";
	.scl	3;
	.type	32;
	.endef
	.p2align	4, 0x90
"?dtor$27@?0??flush@?$basic_ostream@DU?$char_traits@D@std@@@std@@QEAAAEAV12@XZ@4HA":
.seh_proc "?dtor$27@?0??flush@?$basic_ostream@DU?$char_traits@D@std@@@std@@QEAAAEAV12@XZ@4HA"
.LBB19_27:
	movq	%rdx, 16(%rsp)
	pushq	%rbp
	.seh_pushreg %rbp
	pushq	%rsi
	.seh_pushreg %rsi
	pushq	%rdi
	.seh_pushreg %rdi
	subq	$32, %rsp
	.seh_stackalloc 32
	leaq	128(%rdx), %rbp
	.seh_endprologue
	movq	%rbp, %rcx
	callq	"??1_Sentry_base@?$basic_ostream@DU?$char_traits@D@std@@@std@@QEAA@XZ"
	nop
	addq	$32, %rsp
	popq	%rdi
	popq	%rsi
	popq	%rbp
	retq                                    # CLEANUPRET
.Lfunc_end16:
	.seh_handlerdata
	.section	.text,"xr",discard,"?flush@?$basic_ostream@DU?$char_traits@D@std@@@std@@QEAAAEAV12@XZ"
	.seh_endproc
	.section	.xdata,"dr",associative,"?flush@?$basic_ostream@DU?$char_traits@D@std@@@std@@QEAAAEAV12@XZ"
	.p2align	2
"$cppxdata$?flush@?$basic_ostream@DU?$char_traits@D@std@@@std@@QEAAAEAV12@XZ":
	.long	429065506                       # MagicNumber
	.long	6                               # MaxState
	.long	("$stateUnwindMap$?flush@?$basic_ostream@DU?$char_traits@D@std@@@std@@QEAAAEAV12@XZ")@IMGREL # UnwindMap
	.long	1                               # NumTryBlocks
	.long	("$tryMap$?flush@?$basic_ostream@DU?$char_traits@D@std@@@std@@QEAAAEAV12@XZ")@IMGREL # TryBlockMap
	.long	8                               # IPMapEntries
	.long	("$ip2state$?flush@?$basic_ostream@DU?$char_traits@D@std@@@std@@QEAAAEAV12@XZ")@IMGREL # IPToStateXData
	.long	152                             # UnwindHelp
	.long	0                               # ESTypeList
	.long	1                               # EHFlags
"$stateUnwindMap$?flush@?$basic_ostream@DU?$char_traits@D@std@@@std@@QEAAAEAV12@XZ":
	.long	-1                              # ToState
	.long	"?dtor$27@?0??flush@?$basic_ostream@DU?$char_traits@D@std@@@std@@QEAAAEAV12@XZ@4HA"@IMGREL # Action
	.long	-1                              # ToState
	.long	"?dtor$19@?0??flush@?$basic_ostream@DU?$char_traits@D@std@@@std@@QEAAAEAV12@XZ@4HA"@IMGREL # Action
	.long	1                               # ToState
	.long	0                               # Action
	.long	1                               # ToState
	.long	0                               # Action
	.long	-1                              # ToState
	.long	"?dtor$25@?0??flush@?$basic_ostream@DU?$char_traits@D@std@@@std@@QEAAAEAV12@XZ@4HA"@IMGREL # Action
	.long	-1                              # ToState
	.long	"?dtor$26@?0??flush@?$basic_ostream@DU?$char_traits@D@std@@@std@@QEAAAEAV12@XZ@4HA"@IMGREL # Action
"$tryMap$?flush@?$basic_ostream@DU?$char_traits@D@std@@@std@@QEAAAEAV12@XZ":
	.long	2                               # TryLow
	.long	2                               # TryHigh
	.long	3                               # CatchHigh
	.long	1                               # NumCatches
	.long	("$handlerMap$0$?flush@?$basic_ostream@DU?$char_traits@D@std@@@std@@QEAAAEAV12@XZ")@IMGREL # HandlerArray
"$handlerMap$0$?flush@?$basic_ostream@DU?$char_traits@D@std@@@std@@QEAAAEAV12@XZ":
	.long	64                              # Adjectives
	.long	0                               # Type
	.long	0                               # CatchObjOffset
	.long	"?catch$17@?0??flush@?$basic_ostream@DU?$char_traits@D@std@@@std@@QEAAAEAV12@XZ@4HA"@IMGREL # Handler
	.long	72                              # ParentFrameOffset
"$ip2state$?flush@?$basic_ostream@DU?$char_traits@D@std@@@std@@QEAAAEAV12@XZ":
	.long	.Lfunc_begin16@IMGREL           # IP
	.long	-1                              # ToState
	.long	.Ltmp118@IMGREL+1               # IP
	.long	0                               # ToState
	.long	.Ltmp120@IMGREL+1               # IP
	.long	2                               # ToState
	.long	.Ltmp128@IMGREL+1               # IP
	.long	5                               # ToState
	.long	.Ltmp130@IMGREL+1               # IP
	.long	4                               # ToState
	.long	.Ltmp124@IMGREL+1               # IP
	.long	1                               # ToState
	.long	.Ltmp127@IMGREL+1               # IP
	.long	-1                              # ToState
	.long	"?catch$17@?0??flush@?$basic_ostream@DU?$char_traits@D@std@@@std@@QEAAAEAV12@XZ@4HA"@IMGREL # IP
	.long	3                               # ToState
	.section	.text,"xr",discard,"?flush@?$basic_ostream@DU?$char_traits@D@std@@@std@@QEAAAEAV12@XZ"
                                        # -- End function
	.def	"??1_Sentry_base@?$basic_ostream@DU?$char_traits@D@std@@@std@@QEAA@XZ";
	.scl	2;
	.type	32;
	.endef
	.section	.text,"xr",discard,"??1_Sentry_base@?$basic_ostream@DU?$char_traits@D@std@@@std@@QEAA@XZ"
	.globl	"??1_Sentry_base@?$basic_ostream@DU?$char_traits@D@std@@@std@@QEAA@XZ" # -- Begin function ??1_Sentry_base@?$basic_ostream@DU?$char_traits@D@std@@@std@@QEAA@XZ
	.p2align	4, 0x90
"??1_Sentry_base@?$basic_ostream@DU?$char_traits@D@std@@@std@@QEAA@XZ": # @"??1_Sentry_base@?$basic_ostream@DU?$char_traits@D@std@@@std@@QEAA@XZ"
.Lfunc_begin17:
.seh_proc "??1_Sentry_base@?$basic_ostream@DU?$char_traits@D@std@@@std@@QEAA@XZ"
	.seh_handler __CxxFrameHandler3, @unwind, @except
# %bb.0:
	pushq	%rbp
	.seh_pushreg %rbp
	subq	$48, %rsp
	.seh_stackalloc 48
	leaq	48(%rsp), %rbp
	.seh_setframe %rbp, 48
	.seh_endprologue
	movq	$-2, -8(%rbp)
	movq	(%rcx), %rax
	movq	(%rax), %rcx
	movslq	4(%rcx), %rcx
	movq	72(%rax,%rcx), %rcx
	testq	%rcx, %rcx
	je	.LBB20_2
# %bb.1:
	movq	(%rcx), %rax
.Ltmp132:
	callq	*16(%rax)
.Ltmp133:
.LBB20_2:
	nop
	addq	$48, %rsp
	popq	%rbp
	retq
	.seh_handlerdata
	.long	("$cppxdata$??1_Sentry_base@?$basic_ostream@DU?$char_traits@D@std@@@std@@QEAA@XZ")@IMGREL
	.section	.text,"xr",discard,"??1_Sentry_base@?$basic_ostream@DU?$char_traits@D@std@@@std@@QEAA@XZ"
	.seh_endproc
	.def	"?dtor$3@?0???1_Sentry_base@?$basic_ostream@DU?$char_traits@D@std@@@std@@QEAA@XZ@4HA";
	.scl	3;
	.type	32;
	.endef
	.p2align	4, 0x90
"?dtor$3@?0???1_Sentry_base@?$basic_ostream@DU?$char_traits@D@std@@@std@@QEAA@XZ@4HA":
.seh_proc "?dtor$3@?0???1_Sentry_base@?$basic_ostream@DU?$char_traits@D@std@@@std@@QEAA@XZ@4HA"
.LBB20_3:
	movq	%rdx, 16(%rsp)
	pushq	%rbp
	.seh_pushreg %rbp
	subq	$32, %rsp
	.seh_stackalloc 32
	leaq	48(%rdx), %rbp
	.seh_endprologue
	callq	__std_terminate
	int3
.Lfunc_end17:
	.seh_handlerdata
	.section	.text,"xr",discard,"??1_Sentry_base@?$basic_ostream@DU?$char_traits@D@std@@@std@@QEAA@XZ"
	.seh_endproc
	.section	.xdata,"dr",associative,"??1_Sentry_base@?$basic_ostream@DU?$char_traits@D@std@@@std@@QEAA@XZ"
	.p2align	2
"$cppxdata$??1_Sentry_base@?$basic_ostream@DU?$char_traits@D@std@@@std@@QEAA@XZ":
	.long	429065506                       # MagicNumber
	.long	1                               # MaxState
	.long	("$stateUnwindMap$??1_Sentry_base@?$basic_ostream@DU?$char_traits@D@std@@@std@@QEAA@XZ")@IMGREL # UnwindMap
	.long	0                               # NumTryBlocks
	.long	0                               # TryBlockMap
	.long	3                               # IPMapEntries
	.long	("$ip2state$??1_Sentry_base@?$basic_ostream@DU?$char_traits@D@std@@@std@@QEAA@XZ")@IMGREL # IPToStateXData
	.long	40                              # UnwindHelp
	.long	0                               # ESTypeList
	.long	1                               # EHFlags
"$stateUnwindMap$??1_Sentry_base@?$basic_ostream@DU?$char_traits@D@std@@@std@@QEAA@XZ":
	.long	-1                              # ToState
	.long	"?dtor$3@?0???1_Sentry_base@?$basic_ostream@DU?$char_traits@D@std@@@std@@QEAA@XZ@4HA"@IMGREL # Action
"$ip2state$??1_Sentry_base@?$basic_ostream@DU?$char_traits@D@std@@@std@@QEAA@XZ":
	.long	.Lfunc_begin17@IMGREL           # IP
	.long	-1                              # ToState
	.long	.Ltmp132@IMGREL+1               # IP
	.long	0                               # ToState
	.long	.Ltmp133@IMGREL+1               # IP
	.long	-1                              # ToState
	.section	.text,"xr",discard,"??1_Sentry_base@?$basic_ostream@DU?$char_traits@D@std@@@std@@QEAA@XZ"
                                        # -- End function
	.def	"?make_error_code@std@@YA?AVerror_code@1@W4io_errc@1@@Z";
	.scl	2;
	.type	32;
	.endef
	.section	.text,"xr",discard,"?make_error_code@std@@YA?AVerror_code@1@W4io_errc@1@@Z"
	.globl	"?make_error_code@std@@YA?AVerror_code@1@W4io_errc@1@@Z" # -- Begin function ?make_error_code@std@@YA?AVerror_code@1@W4io_errc@1@@Z
	.p2align	4, 0x90
"?make_error_code@std@@YA?AVerror_code@1@W4io_errc@1@@Z": # @"?make_error_code@std@@YA?AVerror_code@1@W4io_errc@1@@Z"
.seh_proc "?make_error_code@std@@YA?AVerror_code@1@W4io_errc@1@@Z"
# %bb.0:
	pushq	%rsi
	.seh_pushreg %rsi
	pushq	%rdi
	.seh_pushreg %rdi
	subq	$40, %rsp
	.seh_stackalloc 40
	.seh_endprologue
	movl	%edx, %edi
	movq	%rcx, %rsi
	movl	"?$TSS0@?1???$_Immortalize_memcpy_image@V_Iostream_error_category2@std@@@std@@YAAEBV_Iostream_error_category2@0@XZ@4HA"(%rip), %eax
	movl	_tls_index(%rip), %ecx
	movq	%gs:88, %rdx
	movq	(%rdx,%rcx,8), %rcx
	cmpl	_Init_thread_epoch@SECREL32(%rcx), %eax
	jg	.LBB21_1
.LBB21_3:
	movl	%edi, (%rsi)
	leaq	"?_Static@?1???$_Immortalize_memcpy_image@V_Iostream_error_category2@std@@@std@@YAAEBV_Iostream_error_category2@1@XZ@4V21@A"(%rip), %rax
	movq	%rax, 8(%rsi)
	movq	%rsi, %rax
	addq	$40, %rsp
	popq	%rdi
	popq	%rsi
	retq
.LBB21_1:
	leaq	"?$TSS0@?1???$_Immortalize_memcpy_image@V_Iostream_error_category2@std@@@std@@YAAEBV_Iostream_error_category2@0@XZ@4HA"(%rip), %rcx
	callq	_Init_thread_header
	cmpl	$-1, "?$TSS0@?1???$_Immortalize_memcpy_image@V_Iostream_error_category2@std@@@std@@YAAEBV_Iostream_error_category2@0@XZ@4HA"(%rip)
	jne	.LBB21_3
# %bb.2:
	leaq	"??__F_Static@?1???$_Immortalize_memcpy_image@V_Iostream_error_category2@std@@@std@@YAAEBV_Iostream_error_category2@1@XZ@YAXXZ"(%rip), %rcx
	callq	atexit
	leaq	"?$TSS0@?1???$_Immortalize_memcpy_image@V_Iostream_error_category2@std@@@std@@YAAEBV_Iostream_error_category2@0@XZ@4HA"(%rip), %rcx
	callq	_Init_thread_footer
	jmp	.LBB21_3
	.seh_endproc
                                        # -- End function
	.def	"??0failure@ios_base@std@@QEAA@PEBDAEBVerror_code@2@@Z";
	.scl	2;
	.type	32;
	.endef
	.section	.text,"xr",discard,"??0failure@ios_base@std@@QEAA@PEBDAEBVerror_code@2@@Z"
	.globl	"??0failure@ios_base@std@@QEAA@PEBDAEBVerror_code@2@@Z" # -- Begin function ??0failure@ios_base@std@@QEAA@PEBDAEBVerror_code@2@@Z
	.p2align	4, 0x90
"??0failure@ios_base@std@@QEAA@PEBDAEBVerror_code@2@@Z": # @"??0failure@ios_base@std@@QEAA@PEBDAEBVerror_code@2@@Z"
.seh_proc "??0failure@ios_base@std@@QEAA@PEBDAEBVerror_code@2@@Z"
# %bb.0:
	pushq	%rsi
	.seh_pushreg %rsi
	subq	$48, %rsp
	.seh_stackalloc 48
	.seh_endprologue
	movq	%rdx, %rax
	movq	%rcx, %rsi
	movups	(%r8), %xmm0
	movaps	%xmm0, 32(%rsp)
	leaq	32(%rsp), %rdx
	movq	%rax, %r8
	callq	"??0system_error@std@@QEAA@Verror_code@1@PEBD@Z"
	leaq	"??_7failure@ios_base@std@@6B@"(%rip), %rax
	movq	%rax, (%rsi)
	movq	%rsi, %rax
	addq	$48, %rsp
	popq	%rsi
	retq
	.seh_endproc
                                        # -- End function
	.def	"??0failure@ios_base@std@@QEAA@AEBV012@@Z";
	.scl	2;
	.type	32;
	.endef
	.section	.text,"xr",discard,"??0failure@ios_base@std@@QEAA@AEBV012@@Z"
	.globl	"??0failure@ios_base@std@@QEAA@AEBV012@@Z" # -- Begin function ??0failure@ios_base@std@@QEAA@AEBV012@@Z
	.p2align	4, 0x90
"??0failure@ios_base@std@@QEAA@AEBV012@@Z": # @"??0failure@ios_base@std@@QEAA@AEBV012@@Z"
.Lfunc_begin18:
.seh_proc "??0failure@ios_base@std@@QEAA@AEBV012@@Z"
	.seh_handler __CxxFrameHandler3, @unwind, @except
# %bb.0:
	pushq	%rbp
	.seh_pushreg %rbp
	pushq	%rsi
	.seh_pushreg %rsi
	pushq	%rdi
	.seh_pushreg %rdi
	subq	$48, %rsp
	.seh_stackalloc 48
	leaq	48(%rsp), %rbp
	.seh_setframe %rbp, 48
	.seh_endprologue
	movq	$-2, -8(%rbp)
	movq	%rdx, %rdi
	movq	%rcx, %rsi
	leaq	"??_7exception@std@@6B@"(%rip), %rax
	movq	%rax, (%rcx)
	leaq	8(%rcx), %rdx
	xorps	%xmm0, %xmm0
	movups	%xmm0, 8(%rcx)
	leaq	8(%rdi), %rcx
.Ltmp134:
	callq	__std_exception_copy
.Ltmp135:
# %bb.1:
	leaq	"??_7_System_error@std@@6B@"(%rip), %rax
	movq	%rax, (%rsi)
	movups	24(%rdi), %xmm0
	movups	%xmm0, 24(%rsi)
	leaq	"??_7failure@ios_base@std@@6B@"(%rip), %rax
	movq	%rax, (%rsi)
	movq	%rsi, %rax
	addq	$48, %rsp
	popq	%rdi
	popq	%rsi
	popq	%rbp
	retq
	.seh_handlerdata
	.long	("$cppxdata$??0failure@ios_base@std@@QEAA@AEBV012@@Z")@IMGREL
	.section	.text,"xr",discard,"??0failure@ios_base@std@@QEAA@AEBV012@@Z"
	.seh_endproc
	.def	"?dtor$2@?0???0failure@ios_base@std@@QEAA@AEBV012@@Z@4HA";
	.scl	3;
	.type	32;
	.endef
	.p2align	4, 0x90
"?dtor$2@?0???0failure@ios_base@std@@QEAA@AEBV012@@Z@4HA":
.seh_proc "?dtor$2@?0???0failure@ios_base@std@@QEAA@AEBV012@@Z@4HA"
.LBB23_2:
	movq	%rdx, 16(%rsp)
	pushq	%rbp
	.seh_pushreg %rbp
	pushq	%rsi
	.seh_pushreg %rsi
	pushq	%rdi
	.seh_pushreg %rdi
	subq	$32, %rsp
	.seh_stackalloc 32
	leaq	48(%rdx), %rbp
	.seh_endprologue
	callq	__std_terminate
	int3
.Lfunc_end18:
	.seh_handlerdata
	.section	.text,"xr",discard,"??0failure@ios_base@std@@QEAA@AEBV012@@Z"
	.seh_endproc
	.section	.xdata,"dr",associative,"??0failure@ios_base@std@@QEAA@AEBV012@@Z"
	.p2align	2
"$cppxdata$??0failure@ios_base@std@@QEAA@AEBV012@@Z":
	.long	429065506                       # MagicNumber
	.long	1                               # MaxState
	.long	("$stateUnwindMap$??0failure@ios_base@std@@QEAA@AEBV012@@Z")@IMGREL # UnwindMap
	.long	0                               # NumTryBlocks
	.long	0                               # TryBlockMap
	.long	3                               # IPMapEntries
	.long	("$ip2state$??0failure@ios_base@std@@QEAA@AEBV012@@Z")@IMGREL # IPToStateXData
	.long	40                              # UnwindHelp
	.long	0                               # ESTypeList
	.long	1                               # EHFlags
"$stateUnwindMap$??0failure@ios_base@std@@QEAA@AEBV012@@Z":
	.long	-1                              # ToState
	.long	"?dtor$2@?0???0failure@ios_base@std@@QEAA@AEBV012@@Z@4HA"@IMGREL # Action
"$ip2state$??0failure@ios_base@std@@QEAA@AEBV012@@Z":
	.long	.Lfunc_begin18@IMGREL           # IP
	.long	-1                              # ToState
	.long	.Ltmp134@IMGREL+1               # IP
	.long	0                               # ToState
	.long	.Ltmp135@IMGREL+1               # IP
	.long	-1                              # ToState
	.section	.text,"xr",discard,"??0failure@ios_base@std@@QEAA@AEBV012@@Z"
                                        # -- End function
	.def	"??0system_error@std@@QEAA@AEBV01@@Z";
	.scl	2;
	.type	32;
	.endef
	.section	.text,"xr",discard,"??0system_error@std@@QEAA@AEBV01@@Z"
	.globl	"??0system_error@std@@QEAA@AEBV01@@Z" # -- Begin function ??0system_error@std@@QEAA@AEBV01@@Z
	.p2align	4, 0x90
"??0system_error@std@@QEAA@AEBV01@@Z":  # @"??0system_error@std@@QEAA@AEBV01@@Z"
.Lfunc_begin19:
.seh_proc "??0system_error@std@@QEAA@AEBV01@@Z"
	.seh_handler __CxxFrameHandler3, @unwind, @except
# %bb.0:
	pushq	%rbp
	.seh_pushreg %rbp
	pushq	%rsi
	.seh_pushreg %rsi
	pushq	%rdi
	.seh_pushreg %rdi
	subq	$48, %rsp
	.seh_stackalloc 48
	leaq	48(%rsp), %rbp
	.seh_setframe %rbp, 48
	.seh_endprologue
	movq	$-2, -8(%rbp)
	movq	%rdx, %rdi
	movq	%rcx, %rsi
	leaq	"??_7exception@std@@6B@"(%rip), %rax
	movq	%rax, (%rcx)
	leaq	8(%rcx), %rdx
	xorps	%xmm0, %xmm0
	movups	%xmm0, 8(%rcx)
	leaq	8(%rdi), %rcx
.Ltmp136:
	callq	__std_exception_copy
.Ltmp137:
# %bb.1:
	leaq	"??_7_System_error@std@@6B@"(%rip), %rax
	movq	%rax, (%rsi)
	movups	24(%rdi), %xmm0
	movups	%xmm0, 24(%rsi)
	leaq	"??_7system_error@std@@6B@"(%rip), %rax
	movq	%rax, (%rsi)
	movq	%rsi, %rax
	addq	$48, %rsp
	popq	%rdi
	popq	%rsi
	popq	%rbp
	retq
	.seh_handlerdata
	.long	("$cppxdata$??0system_error@std@@QEAA@AEBV01@@Z")@IMGREL
	.section	.text,"xr",discard,"??0system_error@std@@QEAA@AEBV01@@Z"
	.seh_endproc
	.def	"?dtor$2@?0???0system_error@std@@QEAA@AEBV01@@Z@4HA";
	.scl	3;
	.type	32;
	.endef
	.p2align	4, 0x90
"?dtor$2@?0???0system_error@std@@QEAA@AEBV01@@Z@4HA":
.seh_proc "?dtor$2@?0???0system_error@std@@QEAA@AEBV01@@Z@4HA"
.LBB24_2:
	movq	%rdx, 16(%rsp)
	pushq	%rbp
	.seh_pushreg %rbp
	pushq	%rsi
	.seh_pushreg %rsi
	pushq	%rdi
	.seh_pushreg %rdi
	subq	$32, %rsp
	.seh_stackalloc 32
	leaq	48(%rdx), %rbp
	.seh_endprologue
	callq	__std_terminate
	int3
.Lfunc_end19:
	.seh_handlerdata
	.section	.text,"xr",discard,"??0system_error@std@@QEAA@AEBV01@@Z"
	.seh_endproc
	.section	.xdata,"dr",associative,"??0system_error@std@@QEAA@AEBV01@@Z"
	.p2align	2
"$cppxdata$??0system_error@std@@QEAA@AEBV01@@Z":
	.long	429065506                       # MagicNumber
	.long	1                               # MaxState
	.long	("$stateUnwindMap$??0system_error@std@@QEAA@AEBV01@@Z")@IMGREL # UnwindMap
	.long	0                               # NumTryBlocks
	.long	0                               # TryBlockMap
	.long	3                               # IPMapEntries
	.long	("$ip2state$??0system_error@std@@QEAA@AEBV01@@Z")@IMGREL # IPToStateXData
	.long	40                              # UnwindHelp
	.long	0                               # ESTypeList
	.long	1                               # EHFlags
"$stateUnwindMap$??0system_error@std@@QEAA@AEBV01@@Z":
	.long	-1                              # ToState
	.long	"?dtor$2@?0???0system_error@std@@QEAA@AEBV01@@Z@4HA"@IMGREL # Action
"$ip2state$??0system_error@std@@QEAA@AEBV01@@Z":
	.long	.Lfunc_begin19@IMGREL           # IP
	.long	-1                              # ToState
	.long	.Ltmp136@IMGREL+1               # IP
	.long	0                               # ToState
	.long	.Ltmp137@IMGREL+1               # IP
	.long	-1                              # ToState
	.section	.text,"xr",discard,"??0system_error@std@@QEAA@AEBV01@@Z"
                                        # -- End function
	.def	"??0_System_error@std@@QEAA@AEBV01@@Z";
	.scl	2;
	.type	32;
	.endef
	.section	.text,"xr",discard,"??0_System_error@std@@QEAA@AEBV01@@Z"
	.globl	"??0_System_error@std@@QEAA@AEBV01@@Z" # -- Begin function ??0_System_error@std@@QEAA@AEBV01@@Z
	.p2align	4, 0x90
"??0_System_error@std@@QEAA@AEBV01@@Z": # @"??0_System_error@std@@QEAA@AEBV01@@Z"
.Lfunc_begin20:
.seh_proc "??0_System_error@std@@QEAA@AEBV01@@Z"
	.seh_handler __CxxFrameHandler3, @unwind, @except
# %bb.0:
	pushq	%rbp
	.seh_pushreg %rbp
	pushq	%rsi
	.seh_pushreg %rsi
	pushq	%rdi
	.seh_pushreg %rdi
	subq	$48, %rsp
	.seh_stackalloc 48
	leaq	48(%rsp), %rbp
	.seh_setframe %rbp, 48
	.seh_endprologue
	movq	$-2, -8(%rbp)
	movq	%rdx, %rdi
	movq	%rcx, %rsi
	leaq	"??_7exception@std@@6B@"(%rip), %rax
	movq	%rax, (%rcx)
	leaq	8(%rcx), %rdx
	xorps	%xmm0, %xmm0
	movups	%xmm0, 8(%rcx)
	leaq	8(%rdi), %rcx
.Ltmp138:
	callq	__std_exception_copy
.Ltmp139:
# %bb.1:
	leaq	"??_7_System_error@std@@6B@"(%rip), %rax
	movq	%rax, (%rsi)
	movups	24(%rdi), %xmm0
	movups	%xmm0, 24(%rsi)
	movq	%rsi, %rax
	addq	$48, %rsp
	popq	%rdi
	popq	%rsi
	popq	%rbp
	retq
	.seh_handlerdata
	.long	("$cppxdata$??0_System_error@std@@QEAA@AEBV01@@Z")@IMGREL
	.section	.text,"xr",discard,"??0_System_error@std@@QEAA@AEBV01@@Z"
	.seh_endproc
	.def	"?dtor$2@?0???0_System_error@std@@QEAA@AEBV01@@Z@4HA";
	.scl	3;
	.type	32;
	.endef
	.p2align	4, 0x90
"?dtor$2@?0???0_System_error@std@@QEAA@AEBV01@@Z@4HA":
.seh_proc "?dtor$2@?0???0_System_error@std@@QEAA@AEBV01@@Z@4HA"
.LBB25_2:
	movq	%rdx, 16(%rsp)
	pushq	%rbp
	.seh_pushreg %rbp
	pushq	%rsi
	.seh_pushreg %rsi
	pushq	%rdi
	.seh_pushreg %rdi
	subq	$32, %rsp
	.seh_stackalloc 32
	leaq	48(%rdx), %rbp
	.seh_endprologue
	callq	__std_terminate
	int3
.Lfunc_end20:
	.seh_handlerdata
	.section	.text,"xr",discard,"??0_System_error@std@@QEAA@AEBV01@@Z"
	.seh_endproc
	.section	.xdata,"dr",associative,"??0_System_error@std@@QEAA@AEBV01@@Z"
	.p2align	2
"$cppxdata$??0_System_error@std@@QEAA@AEBV01@@Z":
	.long	429065506                       # MagicNumber
	.long	1                               # MaxState
	.long	("$stateUnwindMap$??0_System_error@std@@QEAA@AEBV01@@Z")@IMGREL # UnwindMap
	.long	0                               # NumTryBlocks
	.long	0                               # TryBlockMap
	.long	3                               # IPMapEntries
	.long	("$ip2state$??0_System_error@std@@QEAA@AEBV01@@Z")@IMGREL # IPToStateXData
	.long	40                              # UnwindHelp
	.long	0                               # ESTypeList
	.long	1                               # EHFlags
"$stateUnwindMap$??0_System_error@std@@QEAA@AEBV01@@Z":
	.long	-1                              # ToState
	.long	"?dtor$2@?0???0_System_error@std@@QEAA@AEBV01@@Z@4HA"@IMGREL # Action
"$ip2state$??0_System_error@std@@QEAA@AEBV01@@Z":
	.long	.Lfunc_begin20@IMGREL           # IP
	.long	-1                              # ToState
	.long	.Ltmp138@IMGREL+1               # IP
	.long	0                               # ToState
	.long	.Ltmp139@IMGREL+1               # IP
	.long	-1                              # ToState
	.section	.text,"xr",discard,"??0_System_error@std@@QEAA@AEBV01@@Z"
                                        # -- End function
	.def	"??0runtime_error@std@@QEAA@AEBV01@@Z";
	.scl	2;
	.type	32;
	.endef
	.section	.text,"xr",discard,"??0runtime_error@std@@QEAA@AEBV01@@Z"
	.globl	"??0runtime_error@std@@QEAA@AEBV01@@Z" # -- Begin function ??0runtime_error@std@@QEAA@AEBV01@@Z
	.p2align	4, 0x90
"??0runtime_error@std@@QEAA@AEBV01@@Z": # @"??0runtime_error@std@@QEAA@AEBV01@@Z"
.Lfunc_begin21:
.seh_proc "??0runtime_error@std@@QEAA@AEBV01@@Z"
	.seh_handler __CxxFrameHandler3, @unwind, @except
# %bb.0:
	pushq	%rbp
	.seh_pushreg %rbp
	pushq	%rsi
	.seh_pushreg %rsi
	subq	$40, %rsp
	.seh_stackalloc 40
	leaq	32(%rsp), %rbp
	.seh_setframe %rbp, 32
	.seh_endprologue
	movq	$-2, (%rbp)
	movq	%rcx, %rsi
	leaq	"??_7exception@std@@6B@"(%rip), %rax
	movq	%rax, (%rcx)
	leaq	8(%rcx), %rax
	xorps	%xmm0, %xmm0
	movups	%xmm0, 8(%rcx)
	leaq	8(%rdx), %rcx
.Ltmp140:
	movq	%rax, %rdx
	callq	__std_exception_copy
.Ltmp141:
# %bb.1:
	leaq	"??_7runtime_error@std@@6B@"(%rip), %rax
	movq	%rax, (%rsi)
	movq	%rsi, %rax
	addq	$40, %rsp
	popq	%rsi
	popq	%rbp
	retq
	.seh_handlerdata
	.long	("$cppxdata$??0runtime_error@std@@QEAA@AEBV01@@Z")@IMGREL
	.section	.text,"xr",discard,"??0runtime_error@std@@QEAA@AEBV01@@Z"
	.seh_endproc
	.def	"?dtor$2@?0???0runtime_error@std@@QEAA@AEBV01@@Z@4HA";
	.scl	3;
	.type	32;
	.endef
	.p2align	4, 0x90
"?dtor$2@?0???0runtime_error@std@@QEAA@AEBV01@@Z@4HA":
.seh_proc "?dtor$2@?0???0runtime_error@std@@QEAA@AEBV01@@Z@4HA"
.LBB26_2:
	movq	%rdx, 16(%rsp)
	pushq	%rbp
	.seh_pushreg %rbp
	pushq	%rsi
	.seh_pushreg %rsi
	subq	$40, %rsp
	.seh_stackalloc 40
	leaq	32(%rdx), %rbp
	.seh_endprologue
	callq	__std_terminate
	int3
.Lfunc_end21:
	.seh_handlerdata
	.section	.text,"xr",discard,"??0runtime_error@std@@QEAA@AEBV01@@Z"
	.seh_endproc
	.section	.xdata,"dr",associative,"??0runtime_error@std@@QEAA@AEBV01@@Z"
	.p2align	2
"$cppxdata$??0runtime_error@std@@QEAA@AEBV01@@Z":
	.long	429065506                       # MagicNumber
	.long	1                               # MaxState
	.long	("$stateUnwindMap$??0runtime_error@std@@QEAA@AEBV01@@Z")@IMGREL # UnwindMap
	.long	0                               # NumTryBlocks
	.long	0                               # TryBlockMap
	.long	3                               # IPMapEntries
	.long	("$ip2state$??0runtime_error@std@@QEAA@AEBV01@@Z")@IMGREL # IPToStateXData
	.long	32                              # UnwindHelp
	.long	0                               # ESTypeList
	.long	1                               # EHFlags
"$stateUnwindMap$??0runtime_error@std@@QEAA@AEBV01@@Z":
	.long	-1                              # ToState
	.long	"?dtor$2@?0???0runtime_error@std@@QEAA@AEBV01@@Z@4HA"@IMGREL # Action
"$ip2state$??0runtime_error@std@@QEAA@AEBV01@@Z":
	.long	.Lfunc_begin21@IMGREL           # IP
	.long	-1                              # ToState
	.long	.Ltmp140@IMGREL+1               # IP
	.long	0                               # ToState
	.long	.Ltmp141@IMGREL+1               # IP
	.long	-1                              # ToState
	.section	.text,"xr",discard,"??0runtime_error@std@@QEAA@AEBV01@@Z"
                                        # -- End function
	.def	"??__F_Static@?1???$_Immortalize_memcpy_image@V_Iostream_error_category2@std@@@std@@YAAEBV_Iostream_error_category2@1@XZ@YAXXZ";
	.scl	3;
	.type	32;
	.endef
	.text
	.p2align	4, 0x90                         # -- Begin function ??__F_Static@?1???$_Immortalize_memcpy_image@V_Iostream_error_category2@std@@@std@@YAAEBV_Iostream_error_category2@1@XZ@YAXXZ
"??__F_Static@?1???$_Immortalize_memcpy_image@V_Iostream_error_category2@std@@@std@@YAAEBV_Iostream_error_category2@1@XZ@YAXXZ": # @"??__F_Static@?1???$_Immortalize_memcpy_image@V_Iostream_error_category2@std@@@std@@YAAEBV_Iostream_error_category2@1@XZ@YAXXZ"
# %bb.0:
	retq
                                        # -- End function
	.def	"??_G_Iostream_error_category2@std@@UEAAPEAXI@Z";
	.scl	2;
	.type	32;
	.endef
	.section	.text,"xr",discard,"??_G_Iostream_error_category2@std@@UEAAPEAXI@Z"
	.globl	"??_G_Iostream_error_category2@std@@UEAAPEAXI@Z" # -- Begin function ??_G_Iostream_error_category2@std@@UEAAPEAXI@Z
	.p2align	4, 0x90
"??_G_Iostream_error_category2@std@@UEAAPEAXI@Z": # @"??_G_Iostream_error_category2@std@@UEAAPEAXI@Z"
.seh_proc "??_G_Iostream_error_category2@std@@UEAAPEAXI@Z"
# %bb.0:
	pushq	%rsi
	.seh_pushreg %rsi
	subq	$32, %rsp
	.seh_stackalloc 32
	.seh_endprologue
	movq	%rcx, %rsi
	testl	%edx, %edx
	je	.LBB28_2
# %bb.1:
	movq	%rsi, %rcx
	callq	"??3@YAXPEAX@Z"
.LBB28_2:
	movq	%rsi, %rax
	addq	$32, %rsp
	popq	%rsi
	retq
	.seh_endproc
                                        # -- End function
	.def	"?name@_Iostream_error_category2@std@@UEBAPEBDXZ";
	.scl	2;
	.type	32;
	.endef
	.section	.text,"xr",discard,"?name@_Iostream_error_category2@std@@UEBAPEBDXZ"
	.globl	"?name@_Iostream_error_category2@std@@UEBAPEBDXZ" # -- Begin function ?name@_Iostream_error_category2@std@@UEBAPEBDXZ
	.p2align	4, 0x90
"?name@_Iostream_error_category2@std@@UEBAPEBDXZ": # @"?name@_Iostream_error_category2@std@@UEBAPEBDXZ"
# %bb.0:
	leaq	"??_C@_08LLGCOLLL@iostream?$AA@"(%rip), %rax
	retq
                                        # -- End function
	.def	"?message@_Iostream_error_category2@std@@UEBA?AV?$basic_string@DU?$char_traits@D@std@@V?$allocator@D@2@@2@H@Z";
	.scl	2;
	.type	32;
	.endef
	.section	.text,"xr",discard,"?message@_Iostream_error_category2@std@@UEBA?AV?$basic_string@DU?$char_traits@D@std@@V?$allocator@D@2@@2@H@Z"
	.globl	"?message@_Iostream_error_category2@std@@UEBA?AV?$basic_string@DU?$char_traits@D@std@@V?$allocator@D@2@@2@H@Z" # -- Begin function ?message@_Iostream_error_category2@std@@UEBA?AV?$basic_string@DU?$char_traits@D@std@@V?$allocator@D@2@@2@H@Z
	.p2align	4, 0x90
"?message@_Iostream_error_category2@std@@UEBA?AV?$basic_string@DU?$char_traits@D@std@@V?$allocator@D@2@@2@H@Z": # @"?message@_Iostream_error_category2@std@@UEBA?AV?$basic_string@DU?$char_traits@D@std@@V?$allocator@D@2@@2@H@Z"
.seh_proc "?message@_Iostream_error_category2@std@@UEBA?AV?$basic_string@DU?$char_traits@D@std@@V?$allocator@D@2@@2@H@Z"
# %bb.0:
	pushq	%r15
	.seh_pushreg %r15
	pushq	%r14
	.seh_pushreg %r14
	pushq	%rsi
	.seh_pushreg %rsi
	pushq	%rdi
	.seh_pushreg %rdi
	pushq	%rbx
	.seh_pushreg %rbx
	subq	$32, %rsp
	.seh_stackalloc 32
	.seh_endprologue
	movq	%rdx, %rsi
	cmpl	$1, %r8d
	jne	.LBB30_2
# %bb.1:
	xorps	%xmm0, %xmm0
	movups	%xmm0, 16(%rsi)
	movups	%xmm0, (%rsi)
	movq	$15, 24(%rsi)
	movl	$32, %ecx
	callq	"??2@YAPEAX_K@Z"
	movq	%rax, %rdi
	movq	%rax, (%rsi)
	movq	$21, 16(%rsi)
	movq	$31, 24(%rsi)
	movaps	"?_Iostream_error@?4??message@_Iostream_error_category2@std@@UEBA?AV?$basic_string@DU?$char_traits@D@std@@V?$allocator@D@2@@3@H@Z@4QBDB"(%rip), %xmm0
	movups	%xmm0, (%rax)
	movabsq	$8245935278387129697, %rax      # imm = 0x726F727265206D61
	movq	%rax, 13(%rdi)
	addq	$21, %rdi
	jmp	.LBB30_10
.LBB30_2:
	movl	%r8d, %ecx
	callq	"?_Syserror_map@std@@YAPEBDH@Z"
	movq	%rax, %r14
	xorps	%xmm0, %xmm0
	movups	%xmm0, (%rsi)
	movups	%xmm0, 16(%rsi)
	movq	%rax, %rcx
	callq	strlen
	testq	%rax, %rax
	js	.LBB30_11
# %bb.3:
	movq	%rax, %rdi
	cmpq	$15, %rax
	ja	.LBB30_5
# %bb.4:
	movq	%rdi, 16(%rsi)
	movq	$15, 24(%rsi)
	movq	%rsi, %rcx
	movq	%r14, %rdx
	movq	%rdi, %r8
	callq	memcpy
	addq	%rsi, %rdi
	jmp	.LBB30_10
.LBB30_5:
	movq	$15, 24(%rsi)
	movq	%rdi, %rax
	orq	$15, %rax
	cmpq	$23, %rax
	movl	$22, %ecx
	cmovaeq	%rax, %rcx
	testq	%rax, %rax
	movabsq	$9223372036854775807, %r15      # imm = 0x7FFFFFFFFFFFFFFF
	cmovnsq	%rcx, %r15
	leaq	1(%r15), %rcx
	cmpq	$4096, %rcx                     # imm = 0x1000
	jb	.LBB30_8
# %bb.6:
	cmpq	$-39, %rcx
	jae	.LBB30_12
# %bb.7:
	leaq	40(%r15), %rcx
	callq	"??2@YAPEAX_K@Z"
	leaq	39(%rax), %rbx
	andq	$-32, %rbx
	movq	%rax, -8(%rbx)
	jmp	.LBB30_9
.LBB30_8:
	callq	"??2@YAPEAX_K@Z"
	movq	%rax, %rbx
.LBB30_9:
	movq	%rbx, (%rsi)
	movq	%rdi, 16(%rsi)
	movq	%r15, 24(%rsi)
	movq	%rbx, %rcx
	movq	%r14, %rdx
	movq	%rdi, %r8
	callq	memcpy
	addq	%rbx, %rdi
.LBB30_10:
	movb	$0, (%rdi)
	movq	%rsi, %rax
	addq	$32, %rsp
	popq	%rbx
	popq	%rdi
	popq	%rsi
	popq	%r14
	popq	%r15
	retq
.LBB30_11:
	callq	"?_Xlen_string@std@@YAXXZ"
.LBB30_12:
	callq	"?_Throw_bad_array_new_length@std@@YAXXZ"
	int3
	.seh_endproc
                                        # -- End function
	.def	"?default_error_condition@error_category@std@@UEBA?AVerror_condition@2@H@Z";
	.scl	2;
	.type	32;
	.endef
	.section	.text,"xr",discard,"?default_error_condition@error_category@std@@UEBA?AVerror_condition@2@H@Z"
	.globl	"?default_error_condition@error_category@std@@UEBA?AVerror_condition@2@H@Z" # -- Begin function ?default_error_condition@error_category@std@@UEBA?AVerror_condition@2@H@Z
	.p2align	4, 0x90
"?default_error_condition@error_category@std@@UEBA?AVerror_condition@2@H@Z": # @"?default_error_condition@error_category@std@@UEBA?AVerror_condition@2@H@Z"
# %bb.0:
	movq	%rdx, %rax
	movl	%r8d, (%rdx)
	movq	%rcx, 8(%rdx)
	retq
                                        # -- End function
	.def	"?equivalent@error_category@std@@UEBA_NAEBVerror_code@2@H@Z";
	.scl	2;
	.type	32;
	.endef
	.section	.text,"xr",discard,"?equivalent@error_category@std@@UEBA_NAEBVerror_code@2@H@Z"
	.globl	"?equivalent@error_category@std@@UEBA_NAEBVerror_code@2@H@Z" # -- Begin function ?equivalent@error_category@std@@UEBA_NAEBVerror_code@2@H@Z
	.p2align	4, 0x90
"?equivalent@error_category@std@@UEBA_NAEBVerror_code@2@H@Z": # @"?equivalent@error_category@std@@UEBA_NAEBVerror_code@2@H@Z"
# %bb.0:
	movq	8(%rdx), %rax
	movq	8(%rcx), %rcx
	cmpq	8(%rax), %rcx
	sete	%cl
	cmpl	%r8d, (%rdx)
	sete	%al
	andb	%cl, %al
	retq
                                        # -- End function
	.def	"?equivalent@error_category@std@@UEBA_NHAEBVerror_condition@2@@Z";
	.scl	2;
	.type	32;
	.endef
	.section	.text,"xr",discard,"?equivalent@error_category@std@@UEBA_NHAEBVerror_condition@2@@Z"
	.globl	"?equivalent@error_category@std@@UEBA_NHAEBVerror_condition@2@@Z" # -- Begin function ?equivalent@error_category@std@@UEBA_NHAEBVerror_condition@2@@Z
	.p2align	4, 0x90
"?equivalent@error_category@std@@UEBA_NHAEBVerror_condition@2@@Z": # @"?equivalent@error_category@std@@UEBA_NHAEBVerror_condition@2@@Z"
.seh_proc "?equivalent@error_category@std@@UEBA_NHAEBVerror_condition@2@@Z"
# %bb.0:
	pushq	%rsi
	.seh_pushreg %rsi
	subq	$48, %rsp
	.seh_stackalloc 48
	.seh_endprologue
	movq	%r8, %rsi
	movl	%edx, %r8d
	movq	(%rcx), %rax
	leaq	32(%rsp), %rdx
	callq	*24(%rax)
	movq	40(%rsp), %rax
	movq	8(%rsi), %rcx
	movq	8(%rax), %rax
	cmpq	8(%rcx), %rax
	sete	%cl
	movl	32(%rsp), %eax
	cmpl	(%rsi), %eax
	sete	%al
	andb	%cl, %al
	addq	$48, %rsp
	popq	%rsi
	retq
	.seh_endproc
                                        # -- End function
	.def	"?_Xlen_string@std@@YAXXZ";
	.scl	2;
	.type	32;
	.endef
	.section	.text,"xr",discard,"?_Xlen_string@std@@YAXXZ"
	.globl	"?_Xlen_string@std@@YAXXZ"      # -- Begin function ?_Xlen_string@std@@YAXXZ
	.p2align	4, 0x90
"?_Xlen_string@std@@YAXXZ":             # @"?_Xlen_string@std@@YAXXZ"
.seh_proc "?_Xlen_string@std@@YAXXZ"
# %bb.0:
	subq	$40, %rsp
	.seh_stackalloc 40
	.seh_endprologue
	leaq	"??_C@_0BA@JFNIOLAK@string?5too?5long?$AA@"(%rip), %rcx
	callq	"?_Xlength_error@std@@YAXPEBD@Z"
	int3
	.seh_endproc
                                        # -- End function
	.def	"??0system_error@std@@QEAA@Verror_code@1@PEBD@Z";
	.scl	2;
	.type	32;
	.endef
	.section	.text,"xr",discard,"??0system_error@std@@QEAA@Verror_code@1@PEBD@Z"
	.globl	"??0system_error@std@@QEAA@Verror_code@1@PEBD@Z" # -- Begin function ??0system_error@std@@QEAA@Verror_code@1@PEBD@Z
	.p2align	4, 0x90
"??0system_error@std@@QEAA@Verror_code@1@PEBD@Z": # @"??0system_error@std@@QEAA@Verror_code@1@PEBD@Z"
.Lfunc_begin22:
.seh_proc "??0system_error@std@@QEAA@Verror_code@1@PEBD@Z"
	.seh_handler __CxxFrameHandler3, @unwind, @except
# %bb.0:
	pushq	%rbp
	.seh_pushreg %rbp
	pushq	%r15
	.seh_pushreg %r15
	pushq	%r14
	.seh_pushreg %r14
	pushq	%r12
	.seh_pushreg %r12
	pushq	%rsi
	.seh_pushreg %rsi
	pushq	%rdi
	.seh_pushreg %rdi
	pushq	%rbx
	.seh_pushreg %rbx
	subq	$96, %rsp
	.seh_stackalloc 96
	leaq	96(%rsp), %rbp
	.seh_setframe %rbp, 96
	.seh_endprologue
	movq	$-2, -8(%rbp)
	movq	%r8, %r12
	movq	%rdx, %r14
	movq	%rcx, %r15
	xorps	%xmm0, %xmm0
	movaps	%xmm0, -32(%rbp)
	movaps	%xmm0, -48(%rbp)
	movq	%r8, %rcx
	callq	strlen
	testq	%rax, %rax
	js	.LBB35_19
# %bb.1:
	movq	%rax, %rbx
	cmpq	$15, %rax
	ja	.LBB35_3
# %bb.2:
	movq	%rbx, -32(%rbp)
	movq	$15, -24(%rbp)
	leaq	-48(%rbp), %rcx
	movq	%r12, %rdx
	movq	%rbx, %r8
	callq	memcpy
	addq	%rbp, %rbx
	addq	$-48, %rbx
	jmp	.LBB35_8
.LBB35_3:
	movq	$15, -24(%rbp)
	movq	%rbx, %rax
	orq	$15, %rax
	cmpq	$23, %rax
	movl	$22, %ecx
	cmovaeq	%rax, %rcx
	testq	%rax, %rax
	movabsq	$9223372036854775807, %rdi      # imm = 0x7FFFFFFFFFFFFFFF
	cmovnsq	%rcx, %rdi
	leaq	1(%rdi), %rcx
	cmpq	$4096, %rcx                     # imm = 0x1000
	jb	.LBB35_6
# %bb.4:
	cmpq	$-39, %rcx
	jae	.LBB35_20
# %bb.5:
	leaq	40(%rdi), %rcx
	callq	"??2@YAPEAX_K@Z"
	leaq	39(%rax), %rsi
	andq	$-32, %rsi
	movq	%rax, -8(%rsi)
	jmp	.LBB35_7
.LBB35_6:
	callq	"??2@YAPEAX_K@Z"
	movq	%rax, %rsi
.LBB35_7:
	movq	%rsi, -48(%rbp)
	movq	%rbx, -32(%rbp)
	movq	%rdi, -24(%rbp)
	movq	%rsi, %rcx
	movq	%r12, %rdx
	movq	%rbx, %r8
	callq	memcpy
	addq	%rsi, %rbx
.LBB35_8:
	movb	$0, (%rbx)
	movups	(%r14), %xmm0
	movaps	%xmm0, -64(%rbp)
.Ltmp142:
	leaq	-64(%rbp), %rdx
	leaq	-48(%rbp), %r8
	movq	%r15, %rcx
	callq	"??0_System_error@std@@IEAA@Verror_code@1@AEBV?$basic_string@DU?$char_traits@D@std@@V?$allocator@D@2@@1@@Z"
.Ltmp143:
# %bb.9:
	movq	-24(%rbp), %rax
	cmpq	$16, %rax
	jb	.LBB35_17
# %bb.10:
	movq	-48(%rbp), %rcx
	leaq	1(%rax), %rdx
	cmpq	$4096, %rdx                     # imm = 0x1000
	jb	.LBB35_16
# %bb.11:
	movq	-8(%rcx), %rbx
	addq	$-8, %rcx
	subq	%rbx, %rcx
	cmpq	$32, %rcx
	jae	.LBB35_12
# %bb.15:
	addq	$40, %rax
	movq	%rax, %rdx
	movq	%rbx, %rcx
.LBB35_16:
	callq	"??3@YAXPEAX_K@Z"
.LBB35_17:
	leaq	"??_7system_error@std@@6B@"(%rip), %rax
	movq	%rax, (%r15)
	movq	%r15, %rax
	addq	$96, %rsp
	popq	%rbx
	popq	%rdi
	popq	%rsi
	popq	%r12
	popq	%r14
	popq	%r15
	popq	%rbp
	retq
.LBB35_19:
	callq	"?_Xlen_string@std@@YAXXZ"
.LBB35_20:
	callq	"?_Throw_bad_array_new_length@std@@YAXXZ"
.LBB35_12:
.Ltmp144:
	callq	_invalid_parameter_noinfo_noreturn
.Ltmp145:
# %bb.13:
	int3
	.seh_handlerdata
	.long	("$cppxdata$??0system_error@std@@QEAA@Verror_code@1@PEBD@Z")@IMGREL
	.section	.text,"xr",discard,"??0system_error@std@@QEAA@Verror_code@1@PEBD@Z"
	.seh_endproc
	.def	"?dtor$14@?0???0system_error@std@@QEAA@Verror_code@1@PEBD@Z@4HA";
	.scl	3;
	.type	32;
	.endef
	.p2align	4, 0x90
"?dtor$14@?0???0system_error@std@@QEAA@Verror_code@1@PEBD@Z@4HA":
.seh_proc "?dtor$14@?0???0system_error@std@@QEAA@Verror_code@1@PEBD@Z@4HA"
.LBB35_14:
	movq	%rdx, 16(%rsp)
	pushq	%rbp
	.seh_pushreg %rbp
	pushq	%r15
	.seh_pushreg %r15
	pushq	%r14
	.seh_pushreg %r14
	pushq	%r12
	.seh_pushreg %r12
	pushq	%rsi
	.seh_pushreg %rsi
	pushq	%rdi
	.seh_pushreg %rdi
	pushq	%rbx
	.seh_pushreg %rbx
	subq	$32, %rsp
	.seh_stackalloc 32
	leaq	96(%rdx), %rbp
	.seh_endprologue
	callq	__std_terminate
	int3
	.seh_handlerdata
	.section	.text,"xr",discard,"??0system_error@std@@QEAA@Verror_code@1@PEBD@Z"
	.seh_endproc
	.def	"?dtor$18@?0???0system_error@std@@QEAA@Verror_code@1@PEBD@Z@4HA";
	.scl	3;
	.type	32;
	.endef
	.p2align	4, 0x90
"?dtor$18@?0???0system_error@std@@QEAA@Verror_code@1@PEBD@Z@4HA":
.seh_proc "?dtor$18@?0???0system_error@std@@QEAA@Verror_code@1@PEBD@Z@4HA"
.LBB35_18:
	movq	%rdx, 16(%rsp)
	pushq	%rbp
	.seh_pushreg %rbp
	pushq	%r15
	.seh_pushreg %r15
	pushq	%r14
	.seh_pushreg %r14
	pushq	%r12
	.seh_pushreg %r12
	pushq	%rsi
	.seh_pushreg %rsi
	pushq	%rdi
	.seh_pushreg %rdi
	pushq	%rbx
	.seh_pushreg %rbx
	subq	$32, %rsp
	.seh_stackalloc 32
	leaq	96(%rdx), %rbp
	.seh_endprologue
	leaq	-48(%rbp), %rcx
	callq	"??1?$basic_string@DU?$char_traits@D@std@@V?$allocator@D@2@@std@@QEAA@XZ"
	nop
	addq	$32, %rsp
	popq	%rbx
	popq	%rdi
	popq	%rsi
	popq	%r12
	popq	%r14
	popq	%r15
	popq	%rbp
	retq                                    # CLEANUPRET
.Lfunc_end22:
	.seh_handlerdata
	.section	.text,"xr",discard,"??0system_error@std@@QEAA@Verror_code@1@PEBD@Z"
	.seh_endproc
	.section	.xdata,"dr",associative,"??0system_error@std@@QEAA@Verror_code@1@PEBD@Z"
	.p2align	2
"$cppxdata$??0system_error@std@@QEAA@Verror_code@1@PEBD@Z":
	.long	429065506                       # MagicNumber
	.long	2                               # MaxState
	.long	("$stateUnwindMap$??0system_error@std@@QEAA@Verror_code@1@PEBD@Z")@IMGREL # UnwindMap
	.long	0                               # NumTryBlocks
	.long	0                               # TryBlockMap
	.long	5                               # IPMapEntries
	.long	("$ip2state$??0system_error@std@@QEAA@Verror_code@1@PEBD@Z")@IMGREL # IPToStateXData
	.long	88                              # UnwindHelp
	.long	0                               # ESTypeList
	.long	1                               # EHFlags
"$stateUnwindMap$??0system_error@std@@QEAA@Verror_code@1@PEBD@Z":
	.long	-1                              # ToState
	.long	"?dtor$14@?0???0system_error@std@@QEAA@Verror_code@1@PEBD@Z@4HA"@IMGREL # Action
	.long	-1                              # ToState
	.long	"?dtor$18@?0???0system_error@std@@QEAA@Verror_code@1@PEBD@Z@4HA"@IMGREL # Action
"$ip2state$??0system_error@std@@QEAA@Verror_code@1@PEBD@Z":
	.long	.Lfunc_begin22@IMGREL           # IP
	.long	-1                              # ToState
	.long	.Ltmp142@IMGREL+1               # IP
	.long	1                               # ToState
	.long	.Ltmp143@IMGREL+1               # IP
	.long	-1                              # ToState
	.long	.Ltmp144@IMGREL+1               # IP
	.long	0                               # ToState
	.long	.Ltmp145@IMGREL+1               # IP
	.long	-1                              # ToState
	.section	.text,"xr",discard,"??0system_error@std@@QEAA@Verror_code@1@PEBD@Z"
                                        # -- End function
	.def	"??_Gfailure@ios_base@std@@UEAAPEAXI@Z";
	.scl	2;
	.type	32;
	.endef
	.section	.text,"xr",discard,"??_Gfailure@ios_base@std@@UEAAPEAXI@Z"
	.globl	"??_Gfailure@ios_base@std@@UEAAPEAXI@Z" # -- Begin function ??_Gfailure@ios_base@std@@UEAAPEAXI@Z
	.p2align	4, 0x90
"??_Gfailure@ios_base@std@@UEAAPEAXI@Z": # @"??_Gfailure@ios_base@std@@UEAAPEAXI@Z"
.Lfunc_begin23:
.seh_proc "??_Gfailure@ios_base@std@@UEAAPEAXI@Z"
	.seh_handler __CxxFrameHandler3, @unwind, @except
# %bb.0:
	pushq	%rbp
	.seh_pushreg %rbp
	pushq	%rsi
	.seh_pushreg %rsi
	pushq	%rdi
	.seh_pushreg %rdi
	subq	$48, %rsp
	.seh_stackalloc 48
	leaq	48(%rsp), %rbp
	.seh_setframe %rbp, 48
	.seh_endprologue
	movq	$-2, -8(%rbp)
	movl	%edx, %edi
	movq	%rcx, %rsi
	leaq	"??_7exception@std@@6B@"(%rip), %rax
	movq	%rax, (%rcx)
	addq	$8, %rcx
.Ltmp146:
	callq	__std_exception_destroy
.Ltmp147:
# %bb.1:
	testl	%edi, %edi
	je	.LBB36_3
# %bb.2:
	movq	%rsi, %rcx
	callq	"??3@YAXPEAX@Z"
.LBB36_3:
	movq	%rsi, %rax
	addq	$48, %rsp
	popq	%rdi
	popq	%rsi
	popq	%rbp
	retq
	.seh_handlerdata
	.long	("$cppxdata$??_Gfailure@ios_base@std@@UEAAPEAXI@Z")@IMGREL
	.section	.text,"xr",discard,"??_Gfailure@ios_base@std@@UEAAPEAXI@Z"
	.seh_endproc
	.def	"?dtor$4@?0???_Gfailure@ios_base@std@@UEAAPEAXI@Z@4HA";
	.scl	3;
	.type	32;
	.endef
	.p2align	4, 0x90
"?dtor$4@?0???_Gfailure@ios_base@std@@UEAAPEAXI@Z@4HA":
.seh_proc "?dtor$4@?0???_Gfailure@ios_base@std@@UEAAPEAXI@Z@4HA"
.LBB36_4:
	movq	%rdx, 16(%rsp)
	pushq	%rbp
	.seh_pushreg %rbp
	pushq	%rsi
	.seh_pushreg %rsi
	pushq	%rdi
	.seh_pushreg %rdi
	subq	$32, %rsp
	.seh_stackalloc 32
	leaq	48(%rdx), %rbp
	.seh_endprologue
	callq	__std_terminate
	int3
.Lfunc_end23:
	.seh_handlerdata
	.section	.text,"xr",discard,"??_Gfailure@ios_base@std@@UEAAPEAXI@Z"
	.seh_endproc
	.section	.xdata,"dr",associative,"??_Gfailure@ios_base@std@@UEAAPEAXI@Z"
	.p2align	2
"$cppxdata$??_Gfailure@ios_base@std@@UEAAPEAXI@Z":
	.long	429065506                       # MagicNumber
	.long	1                               # MaxState
	.long	("$stateUnwindMap$??_Gfailure@ios_base@std@@UEAAPEAXI@Z")@IMGREL # UnwindMap
	.long	0                               # NumTryBlocks
	.long	0                               # TryBlockMap
	.long	3                               # IPMapEntries
	.long	("$ip2state$??_Gfailure@ios_base@std@@UEAAPEAXI@Z")@IMGREL # IPToStateXData
	.long	40                              # UnwindHelp
	.long	0                               # ESTypeList
	.long	1                               # EHFlags
"$stateUnwindMap$??_Gfailure@ios_base@std@@UEAAPEAXI@Z":
	.long	-1                              # ToState
	.long	"?dtor$4@?0???_Gfailure@ios_base@std@@UEAAPEAXI@Z@4HA"@IMGREL # Action
"$ip2state$??_Gfailure@ios_base@std@@UEAAPEAXI@Z":
	.long	.Lfunc_begin23@IMGREL           # IP
	.long	-1                              # ToState
	.long	.Ltmp146@IMGREL+1               # IP
	.long	0                               # ToState
	.long	.Ltmp147@IMGREL+1               # IP
	.long	-1                              # ToState
	.section	.text,"xr",discard,"??_Gfailure@ios_base@std@@UEAAPEAXI@Z"
                                        # -- End function
	.def	"??0_System_error@std@@IEAA@Verror_code@1@AEBV?$basic_string@DU?$char_traits@D@std@@V?$allocator@D@2@@1@@Z";
	.scl	2;
	.type	32;
	.endef
	.section	.text,"xr",discard,"??0_System_error@std@@IEAA@Verror_code@1@AEBV?$basic_string@DU?$char_traits@D@std@@V?$allocator@D@2@@1@@Z"
	.globl	"??0_System_error@std@@IEAA@Verror_code@1@AEBV?$basic_string@DU?$char_traits@D@std@@V?$allocator@D@2@@1@@Z" # -- Begin function ??0_System_error@std@@IEAA@Verror_code@1@AEBV?$basic_string@DU?$char_traits@D@std@@V?$allocator@D@2@@1@@Z
	.p2align	4, 0x90
"??0_System_error@std@@IEAA@Verror_code@1@AEBV?$basic_string@DU?$char_traits@D@std@@V?$allocator@D@2@@1@@Z": # @"??0_System_error@std@@IEAA@Verror_code@1@AEBV?$basic_string@DU?$char_traits@D@std@@V?$allocator@D@2@@1@@Z"
.Lfunc_begin24:
.seh_proc "??0_System_error@std@@IEAA@Verror_code@1@AEBV?$basic_string@DU?$char_traits@D@std@@V?$allocator@D@2@@1@@Z"
	.seh_handler __CxxFrameHandler3, @unwind, @except
# %bb.0:
	pushq	%rbp
	.seh_pushreg %rbp
	pushq	%r15
	.seh_pushreg %r15
	pushq	%r14
	.seh_pushreg %r14
	pushq	%rsi
	.seh_pushreg %rsi
	pushq	%rdi
	.seh_pushreg %rdi
	pushq	%rbx
	.seh_pushreg %rbx
	subq	$136, %rsp
	.seh_stackalloc 136
	leaq	128(%rsp), %rbp
	.seh_setframe %rbp, 128
	.seh_endprologue
	movq	$-2, (%rbp)
	movq	%r8, %rbx
	movq	%rdx, %r14
	movq	%rcx, %rsi
	xorps	%xmm0, %xmm0
	movaps	%xmm0, -32(%rbp)
	movaps	%xmm0, -16(%rbp)
	movq	16(%r8), %rdi
	cmpq	$16, 24(%r8)
	jb	.LBB37_2
# %bb.1:
	movq	(%rbx), %rbx
.LBB37_2:
	testq	%rdi, %rdi
	js	.LBB37_24
# %bb.3:
	cmpq	$15, %rdi
	ja	.LBB37_5
# %bb.4:
	movq	%rdi, -16(%rbp)
	movq	$15, -8(%rbp)
	movups	(%rbx), %xmm0
	movaps	%xmm0, -32(%rbp)
	jmp	.LBB37_12
.LBB37_5:
	movq	$15, -8(%rbp)
	movq	%rdi, %rax
	orq	$15, %rax
	cmpq	$23, %rax
	movl	$22, %ecx
	cmovaeq	%rax, %rcx
	testq	%rax, %rax
	movabsq	$9223372036854775807, %r15      # imm = 0x7FFFFFFFFFFFFFFF
	cmovnsq	%rcx, %r15
	leaq	1(%r15), %rcx
	cmpq	$4096, %rcx                     # imm = 0x1000
	jb	.LBB37_8
# %bb.6:
	cmpq	$-39, %rcx
	jae	.LBB37_25
# %bb.7:
	leaq	40(%r15), %rcx
	callq	"??2@YAPEAX_K@Z"
	leaq	39(%rax), %rcx
	andq	$-32, %rcx
	movq	%rax, -8(%rcx)
	jmp	.LBB37_11
.LBB37_8:
	testq	%rcx, %rcx
	je	.LBB37_9
# %bb.10:
	callq	"??2@YAPEAX_K@Z"
	movq	%rax, %rcx
	jmp	.LBB37_11
.LBB37_9:
	xorl	%ecx, %ecx
.LBB37_11:
	movq	%rcx, -32(%rbp)
	movq	%rdi, -16(%rbp)
	movq	%r15, -8(%rbp)
	incq	%rdi
	movq	%rbx, %rdx
	movq	%rdi, %r8
	callq	memcpy
.LBB37_12:
	movups	(%r14), %xmm0
	movaps	%xmm0, -96(%rbp)
	leaq	-80(%rbp), %rdi
	leaq	-96(%rbp), %rdx
	leaq	-32(%rbp), %r8
	movq	%rdi, %rcx
	callq	"?_Makestr@_System_error@std@@CA?AV?$basic_string@DU?$char_traits@D@std@@V?$allocator@D@2@@2@Verror_code@2@V32@@Z"
	cmpq	$16, -56(%rbp)
	jb	.LBB37_14
# %bb.13:
	movq	-80(%rbp), %rdi
.LBB37_14:
	leaq	"??_7exception@std@@6B@"(%rip), %rax
	movq	%rax, (%rsi)
	leaq	8(%rsi), %rdx
	xorps	%xmm0, %xmm0
	movups	%xmm0, 8(%rsi)
	movq	%rdi, -48(%rbp)
	movb	$1, -40(%rbp)
.Ltmp148:
	leaq	-48(%rbp), %rcx
	callq	__std_exception_copy
.Ltmp149:
# %bb.15:
	leaq	"??_7runtime_error@std@@6B@"(%rip), %rax
	movq	%rax, (%rsi)
	movq	-56(%rbp), %rax
	cmpq	$16, %rax
	jb	.LBB37_23
# %bb.16:
	movq	-80(%rbp), %rcx
	leaq	1(%rax), %rdx
	cmpq	$4096, %rdx                     # imm = 0x1000
	jb	.LBB37_22
# %bb.17:
	movq	-8(%rcx), %rbx
	addq	$-8, %rcx
	subq	%rbx, %rcx
	cmpq	$32, %rcx
	jae	.LBB37_18
# %bb.21:
	addq	$40, %rax
	movq	%rax, %rdx
	movq	%rbx, %rcx
.LBB37_22:
	callq	"??3@YAXPEAX_K@Z"
.LBB37_23:
	leaq	"??_7_System_error@std@@6B@"(%rip), %rax
	movq	%rax, (%rsi)
	movups	(%r14), %xmm0
	movups	%xmm0, 24(%rsi)
	movq	%rsi, %rax
	addq	$136, %rsp
	popq	%rbx
	popq	%rdi
	popq	%rsi
	popq	%r14
	popq	%r15
	popq	%rbp
	retq
.LBB37_24:
	callq	"?_Xlen_string@std@@YAXXZ"
.LBB37_25:
	callq	"?_Throw_bad_array_new_length@std@@YAXXZ"
.LBB37_18:
.Ltmp150:
	callq	_invalid_parameter_noinfo_noreturn
.Ltmp151:
# %bb.19:
	int3
	.seh_handlerdata
	.long	("$cppxdata$??0_System_error@std@@IEAA@Verror_code@1@AEBV?$basic_string@DU?$char_traits@D@std@@V?$allocator@D@2@@1@@Z")@IMGREL
	.section	.text,"xr",discard,"??0_System_error@std@@IEAA@Verror_code@1@AEBV?$basic_string@DU?$char_traits@D@std@@V?$allocator@D@2@@1@@Z"
	.seh_endproc
	.def	"?dtor$20@?0???0_System_error@std@@IEAA@Verror_code@1@AEBV?$basic_string@DU?$char_traits@D@std@@V?$allocator@D@2@@1@@Z@4HA";
	.scl	3;
	.type	32;
	.endef
	.p2align	4, 0x90
"?dtor$20@?0???0_System_error@std@@IEAA@Verror_code@1@AEBV?$basic_string@DU?$char_traits@D@std@@V?$allocator@D@2@@1@@Z@4HA":
.seh_proc "?dtor$20@?0???0_System_error@std@@IEAA@Verror_code@1@AEBV?$basic_string@DU?$char_traits@D@std@@V?$allocator@D@2@@1@@Z@4HA"
.LBB37_20:
	movq	%rdx, 16(%rsp)
	pushq	%rbp
	.seh_pushreg %rbp
	pushq	%r15
	.seh_pushreg %r15
	pushq	%r14
	.seh_pushreg %r14
	pushq	%rsi
	.seh_pushreg %rsi
	pushq	%rdi
	.seh_pushreg %rdi
	pushq	%rbx
	.seh_pushreg %rbx
	subq	$40, %rsp
	.seh_stackalloc 40
	leaq	128(%rdx), %rbp
	.seh_endprologue
	callq	__std_terminate
	int3
	.seh_handlerdata
	.section	.text,"xr",discard,"??0_System_error@std@@IEAA@Verror_code@1@AEBV?$basic_string@DU?$char_traits@D@std@@V?$allocator@D@2@@1@@Z"
	.seh_endproc
	.def	"?dtor$26@?0???0_System_error@std@@IEAA@Verror_code@1@AEBV?$basic_string@DU?$char_traits@D@std@@V?$allocator@D@2@@1@@Z@4HA";
	.scl	3;
	.type	32;
	.endef
	.p2align	4, 0x90
"?dtor$26@?0???0_System_error@std@@IEAA@Verror_code@1@AEBV?$basic_string@DU?$char_traits@D@std@@V?$allocator@D@2@@1@@Z@4HA":
.seh_proc "?dtor$26@?0???0_System_error@std@@IEAA@Verror_code@1@AEBV?$basic_string@DU?$char_traits@D@std@@V?$allocator@D@2@@1@@Z@4HA"
.LBB37_26:
	movq	%rdx, 16(%rsp)
	pushq	%rbp
	.seh_pushreg %rbp
	pushq	%r15
	.seh_pushreg %r15
	pushq	%r14
	.seh_pushreg %r14
	pushq	%rsi
	.seh_pushreg %rsi
	pushq	%rdi
	.seh_pushreg %rdi
	pushq	%rbx
	.seh_pushreg %rbx
	subq	$40, %rsp
	.seh_stackalloc 40
	leaq	128(%rdx), %rbp
	.seh_endprologue
	callq	__std_terminate
	int3
.Lfunc_end24:
	.seh_handlerdata
	.section	.text,"xr",discard,"??0_System_error@std@@IEAA@Verror_code@1@AEBV?$basic_string@DU?$char_traits@D@std@@V?$allocator@D@2@@1@@Z"
	.seh_endproc
	.section	.xdata,"dr",associative,"??0_System_error@std@@IEAA@Verror_code@1@AEBV?$basic_string@DU?$char_traits@D@std@@V?$allocator@D@2@@1@@Z"
	.p2align	2
"$cppxdata$??0_System_error@std@@IEAA@Verror_code@1@AEBV?$basic_string@DU?$char_traits@D@std@@V?$allocator@D@2@@1@@Z":
	.long	429065506                       # MagicNumber
	.long	2                               # MaxState
	.long	("$stateUnwindMap$??0_System_error@std@@IEAA@Verror_code@1@AEBV?$basic_string@DU?$char_traits@D@std@@V?$allocator@D@2@@1@@Z")@IMGREL # UnwindMap
	.long	0                               # NumTryBlocks
	.long	0                               # TryBlockMap
	.long	5                               # IPMapEntries
	.long	("$ip2state$??0_System_error@std@@IEAA@Verror_code@1@AEBV?$basic_string@DU?$char_traits@D@std@@V?$allocator@D@2@@1@@Z")@IMGREL # IPToStateXData
	.long	128                             # UnwindHelp
	.long	0                               # ESTypeList
	.long	1                               # EHFlags
"$stateUnwindMap$??0_System_error@std@@IEAA@Verror_code@1@AEBV?$basic_string@DU?$char_traits@D@std@@V?$allocator@D@2@@1@@Z":
	.long	-1                              # ToState
	.long	"?dtor$26@?0???0_System_error@std@@IEAA@Verror_code@1@AEBV?$basic_string@DU?$char_traits@D@std@@V?$allocator@D@2@@1@@Z@4HA"@IMGREL # Action
	.long	-1                              # ToState
	.long	"?dtor$20@?0???0_System_error@std@@IEAA@Verror_code@1@AEBV?$basic_string@DU?$char_traits@D@std@@V?$allocator@D@2@@1@@Z@4HA"@IMGREL # Action
"$ip2state$??0_System_error@std@@IEAA@Verror_code@1@AEBV?$basic_string@DU?$char_traits@D@std@@V?$allocator@D@2@@1@@Z":
	.long	.Lfunc_begin24@IMGREL           # IP
	.long	-1                              # ToState
	.long	.Ltmp148@IMGREL+1               # IP
	.long	0                               # ToState
	.long	.Ltmp149@IMGREL+1               # IP
	.long	-1                              # ToState
	.long	.Ltmp150@IMGREL+1               # IP
	.long	1                               # ToState
	.long	.Ltmp151@IMGREL+1               # IP
	.long	-1                              # ToState
	.section	.text,"xr",discard,"??0_System_error@std@@IEAA@Verror_code@1@AEBV?$basic_string@DU?$char_traits@D@std@@V?$allocator@D@2@@1@@Z"
                                        # -- End function
	.def	"??1?$basic_string@DU?$char_traits@D@std@@V?$allocator@D@2@@std@@QEAA@XZ";
	.scl	2;
	.type	32;
	.endef
	.section	.text,"xr",discard,"??1?$basic_string@DU?$char_traits@D@std@@V?$allocator@D@2@@std@@QEAA@XZ"
	.globl	"??1?$basic_string@DU?$char_traits@D@std@@V?$allocator@D@2@@std@@QEAA@XZ" # -- Begin function ??1?$basic_string@DU?$char_traits@D@std@@V?$allocator@D@2@@std@@QEAA@XZ
	.p2align	4, 0x90
"??1?$basic_string@DU?$char_traits@D@std@@V?$allocator@D@2@@std@@QEAA@XZ": # @"??1?$basic_string@DU?$char_traits@D@std@@V?$allocator@D@2@@std@@QEAA@XZ"
.Lfunc_begin25:
.seh_proc "??1?$basic_string@DU?$char_traits@D@std@@V?$allocator@D@2@@std@@QEAA@XZ"
	.seh_handler __CxxFrameHandler3, @unwind, @except
# %bb.0:
	pushq	%rbp
	.seh_pushreg %rbp
	pushq	%rsi
	.seh_pushreg %rsi
	subq	$40, %rsp
	.seh_stackalloc 40
	leaq	32(%rsp), %rbp
	.seh_setframe %rbp, 32
	.seh_endprologue
	movq	$-2, (%rbp)
	movq	%rcx, %rsi
	movq	24(%rcx), %rax
	cmpq	$16, %rax
	jb	.LBB38_8
# %bb.1:
	movq	(%rsi), %rcx
	leaq	1(%rax), %rdx
	cmpq	$4096, %rdx                     # imm = 0x1000
	jb	.LBB38_7
# %bb.2:
	movq	-8(%rcx), %r8
	addq	$-8, %rcx
	subq	%r8, %rcx
	cmpq	$32, %rcx
	jae	.LBB38_3
# %bb.6:
	addq	$40, %rax
	movq	%rax, %rdx
	movq	%r8, %rcx
.LBB38_7:
	callq	"??3@YAXPEAX_K@Z"
.LBB38_8:
	movq	$0, 16(%rsi)
	movq	$15, 24(%rsi)
	movb	$0, (%rsi)
	addq	$40, %rsp
	popq	%rsi
	popq	%rbp
	retq
.LBB38_3:
.Ltmp152:
	callq	_invalid_parameter_noinfo_noreturn
.Ltmp153:
# %bb.4:
	int3
	.seh_handlerdata
	.long	("$cppxdata$??1?$basic_string@DU?$char_traits@D@std@@V?$allocator@D@2@@std@@QEAA@XZ")@IMGREL
	.section	.text,"xr",discard,"??1?$basic_string@DU?$char_traits@D@std@@V?$allocator@D@2@@std@@QEAA@XZ"
	.seh_endproc
	.def	"?dtor$5@?0???1?$basic_string@DU?$char_traits@D@std@@V?$allocator@D@2@@std@@QEAA@XZ@4HA";
	.scl	3;
	.type	32;
	.endef
	.p2align	4, 0x90
"?dtor$5@?0???1?$basic_string@DU?$char_traits@D@std@@V?$allocator@D@2@@std@@QEAA@XZ@4HA":
.seh_proc "?dtor$5@?0???1?$basic_string@DU?$char_traits@D@std@@V?$allocator@D@2@@std@@QEAA@XZ@4HA"
.LBB38_5:
	movq	%rdx, 16(%rsp)
	pushq	%rbp
	.seh_pushreg %rbp
	pushq	%rsi
	.seh_pushreg %rsi
	subq	$40, %rsp
	.seh_stackalloc 40
	leaq	32(%rdx), %rbp
	.seh_endprologue
	callq	__std_terminate
	int3
.Lfunc_end25:
	.seh_handlerdata
	.section	.text,"xr",discard,"??1?$basic_string@DU?$char_traits@D@std@@V?$allocator@D@2@@std@@QEAA@XZ"
	.seh_endproc
	.section	.xdata,"dr",associative,"??1?$basic_string@DU?$char_traits@D@std@@V?$allocator@D@2@@std@@QEAA@XZ"
	.p2align	2
"$cppxdata$??1?$basic_string@DU?$char_traits@D@std@@V?$allocator@D@2@@std@@QEAA@XZ":
	.long	429065506                       # MagicNumber
	.long	1                               # MaxState
	.long	("$stateUnwindMap$??1?$basic_string@DU?$char_traits@D@std@@V?$allocator@D@2@@std@@QEAA@XZ")@IMGREL # UnwindMap
	.long	0                               # NumTryBlocks
	.long	0                               # TryBlockMap
	.long	3                               # IPMapEntries
	.long	("$ip2state$??1?$basic_string@DU?$char_traits@D@std@@V?$allocator@D@2@@std@@QEAA@XZ")@IMGREL # IPToStateXData
	.long	32                              # UnwindHelp
	.long	0                               # ESTypeList
	.long	1                               # EHFlags
"$stateUnwindMap$??1?$basic_string@DU?$char_traits@D@std@@V?$allocator@D@2@@std@@QEAA@XZ":
	.long	-1                              # ToState
	.long	"?dtor$5@?0???1?$basic_string@DU?$char_traits@D@std@@V?$allocator@D@2@@std@@QEAA@XZ@4HA"@IMGREL # Action
"$ip2state$??1?$basic_string@DU?$char_traits@D@std@@V?$allocator@D@2@@std@@QEAA@XZ":
	.long	.Lfunc_begin25@IMGREL           # IP
	.long	-1                              # ToState
	.long	.Ltmp152@IMGREL+1               # IP
	.long	0                               # ToState
	.long	.Ltmp153@IMGREL+1               # IP
	.long	-1                              # ToState
	.section	.text,"xr",discard,"??1?$basic_string@DU?$char_traits@D@std@@V?$allocator@D@2@@std@@QEAA@XZ"
                                        # -- End function
	.def	"??_Gsystem_error@std@@UEAAPEAXI@Z";
	.scl	2;
	.type	32;
	.endef
	.section	.text,"xr",discard,"??_Gsystem_error@std@@UEAAPEAXI@Z"
	.globl	"??_Gsystem_error@std@@UEAAPEAXI@Z" # -- Begin function ??_Gsystem_error@std@@UEAAPEAXI@Z
	.p2align	4, 0x90
"??_Gsystem_error@std@@UEAAPEAXI@Z":    # @"??_Gsystem_error@std@@UEAAPEAXI@Z"
.Lfunc_begin26:
.seh_proc "??_Gsystem_error@std@@UEAAPEAXI@Z"
	.seh_handler __CxxFrameHandler3, @unwind, @except
# %bb.0:
	pushq	%rbp
	.seh_pushreg %rbp
	pushq	%rsi
	.seh_pushreg %rsi
	pushq	%rdi
	.seh_pushreg %rdi
	subq	$48, %rsp
	.seh_stackalloc 48
	leaq	48(%rsp), %rbp
	.seh_setframe %rbp, 48
	.seh_endprologue
	movq	$-2, -8(%rbp)
	movl	%edx, %edi
	movq	%rcx, %rsi
	leaq	"??_7exception@std@@6B@"(%rip), %rax
	movq	%rax, (%rcx)
	addq	$8, %rcx
.Ltmp154:
	callq	__std_exception_destroy
.Ltmp155:
# %bb.1:
	testl	%edi, %edi
	je	.LBB39_3
# %bb.2:
	movq	%rsi, %rcx
	callq	"??3@YAXPEAX@Z"
.LBB39_3:
	movq	%rsi, %rax
	addq	$48, %rsp
	popq	%rdi
	popq	%rsi
	popq	%rbp
	retq
	.seh_handlerdata
	.long	("$cppxdata$??_Gsystem_error@std@@UEAAPEAXI@Z")@IMGREL
	.section	.text,"xr",discard,"??_Gsystem_error@std@@UEAAPEAXI@Z"
	.seh_endproc
	.def	"?dtor$4@?0???_Gsystem_error@std@@UEAAPEAXI@Z@4HA";
	.scl	3;
	.type	32;
	.endef
	.p2align	4, 0x90
"?dtor$4@?0???_Gsystem_error@std@@UEAAPEAXI@Z@4HA":
.seh_proc "?dtor$4@?0???_Gsystem_error@std@@UEAAPEAXI@Z@4HA"
.LBB39_4:
	movq	%rdx, 16(%rsp)
	pushq	%rbp
	.seh_pushreg %rbp
	pushq	%rsi
	.seh_pushreg %rsi
	pushq	%rdi
	.seh_pushreg %rdi
	subq	$32, %rsp
	.seh_stackalloc 32
	leaq	48(%rdx), %rbp
	.seh_endprologue
	callq	__std_terminate
	int3
.Lfunc_end26:
	.seh_handlerdata
	.section	.text,"xr",discard,"??_Gsystem_error@std@@UEAAPEAXI@Z"
	.seh_endproc
	.section	.xdata,"dr",associative,"??_Gsystem_error@std@@UEAAPEAXI@Z"
	.p2align	2
"$cppxdata$??_Gsystem_error@std@@UEAAPEAXI@Z":
	.long	429065506                       # MagicNumber
	.long	1                               # MaxState
	.long	("$stateUnwindMap$??_Gsystem_error@std@@UEAAPEAXI@Z")@IMGREL # UnwindMap
	.long	0                               # NumTryBlocks
	.long	0                               # TryBlockMap
	.long	3                               # IPMapEntries
	.long	("$ip2state$??_Gsystem_error@std@@UEAAPEAXI@Z")@IMGREL # IPToStateXData
	.long	40                              # UnwindHelp
	.long	0                               # ESTypeList
	.long	1                               # EHFlags
"$stateUnwindMap$??_Gsystem_error@std@@UEAAPEAXI@Z":
	.long	-1                              # ToState
	.long	"?dtor$4@?0???_Gsystem_error@std@@UEAAPEAXI@Z@4HA"@IMGREL # Action
"$ip2state$??_Gsystem_error@std@@UEAAPEAXI@Z":
	.long	.Lfunc_begin26@IMGREL           # IP
	.long	-1                              # ToState
	.long	.Ltmp154@IMGREL+1               # IP
	.long	0                               # ToState
	.long	.Ltmp155@IMGREL+1               # IP
	.long	-1                              # ToState
	.section	.text,"xr",discard,"??_Gsystem_error@std@@UEAAPEAXI@Z"
                                        # -- End function
	.def	"?_Makestr@_System_error@std@@CA?AV?$basic_string@DU?$char_traits@D@std@@V?$allocator@D@2@@2@Verror_code@2@V32@@Z";
	.scl	2;
	.type	32;
	.endef
	.section	.text,"xr",discard,"?_Makestr@_System_error@std@@CA?AV?$basic_string@DU?$char_traits@D@std@@V?$allocator@D@2@@2@Verror_code@2@V32@@Z"
	.globl	"?_Makestr@_System_error@std@@CA?AV?$basic_string@DU?$char_traits@D@std@@V?$allocator@D@2@@2@Verror_code@2@V32@@Z" # -- Begin function ?_Makestr@_System_error@std@@CA?AV?$basic_string@DU?$char_traits@D@std@@V?$allocator@D@2@@2@Verror_code@2@V32@@Z
	.p2align	4, 0x90
"?_Makestr@_System_error@std@@CA?AV?$basic_string@DU?$char_traits@D@std@@V?$allocator@D@2@@2@Verror_code@2@V32@@Z": # @"?_Makestr@_System_error@std@@CA?AV?$basic_string@DU?$char_traits@D@std@@V?$allocator@D@2@@2@Verror_code@2@V32@@Z"
.Lfunc_begin27:
.seh_proc "?_Makestr@_System_error@std@@CA?AV?$basic_string@DU?$char_traits@D@std@@V?$allocator@D@2@@2@Verror_code@2@V32@@Z"
	.seh_handler __CxxFrameHandler3, @unwind, @except
# %bb.0:
	pushq	%rbp
	.seh_pushreg %rbp
	pushq	%r15
	.seh_pushreg %r15
	pushq	%r14
	.seh_pushreg %r14
	pushq	%rsi
	.seh_pushreg %rsi
	pushq	%rdi
	.seh_pushreg %rdi
	pushq	%rbx
	.seh_pushreg %rbx
	subq	$88, %rsp
	.seh_stackalloc 88
	leaq	80(%rsp), %rbp
	.seh_setframe %rbp, 80
	.seh_endprologue
	movq	$-2, (%rbp)
	movq	%rdx, %rdi
	movq	%rcx, %r14
	movq	%r8, -8(%rbp)                   # 8-byte Spill
	movq	16(%r8), %rax
	testq	%rax, %rax
	je	.LBB40_6
# %bb.1:
	movq	-8(%rbp), %rcx                  # 8-byte Reload
	movq	24(%rcx), %rbx
	movq	%rbx, %rdx
	subq	%rax, %rdx
	cmpq	$2, %rdx
	jae	.LBB40_2
# %bb.5:
.Ltmp156:
	movq	$2, 32(%rsp)
	leaq	"??_C@_02LMMGGCAJ@?3?5?$AA@"(%rip), %r9
	movl	$2, %edx
	callq	"??$_Reallocate_grow_by@V<lambda_1>@?0??append@?$basic_string@DU?$char_traits@D@std@@V?$allocator@D@2@@std@@QEAAAEAV34@QEBD_K@Z@PEBD_K@?$basic_string@DU?$char_traits@D@std@@V?$allocator@D@2@@std@@AEAAAEAV01@_KV<lambda_1>@?0??append@01@QEAAAEAV01@QEBD0@Z@PEBD_K@Z"
.Ltmp157:
	jmp	.LBB40_6
.LBB40_2:
	leaq	2(%rax), %rdx
	movq	%rdx, 16(%rcx)
	movq	%rcx, %rdx
	cmpq	$16, %rbx
	jb	.LBB40_4
# %bb.3:
	movq	(%rcx), %rdx
.LBB40_4:
	movw	$8250, (%rdx,%rax)              # imm = 0x203A
	movb	$0, 2(%rdx,%rax)
.LBB40_6:
	movq	8(%rdi), %rcx
	movl	(%rdi), %r8d
	movq	(%rcx), %rax
.Ltmp158:
	leaq	-40(%rbp), %rdi
	movq	%rdi, %rdx
	callq	*16(%rax)
.Ltmp159:
# %bb.7:
	movq	-24(%rbp), %r8
	cmpq	$16, -16(%rbp)
	jb	.LBB40_9
# %bb.8:
	movq	-40(%rbp), %rdi
.LBB40_9:
	movq	-8(%rbp), %rsi                  # 8-byte Reload
	movq	16(%rsi), %rcx
	movq	24(%rsi), %rax
	movq	%rax, %rdx
	subq	%rcx, %rdx
	cmpq	%r8, %rdx
	jae	.LBB40_10
# %bb.13:
.Ltmp160:
	movq	%r8, 32(%rsp)
	movq	%rsi, %rcx
	movq	%r8, %rdx
	movq	%rdi, %r9
	callq	"??$_Reallocate_grow_by@V<lambda_1>@?0??append@?$basic_string@DU?$char_traits@D@std@@V?$allocator@D@2@@std@@QEAAAEAV34@QEBD_K@Z@PEBD_K@?$basic_string@DU?$char_traits@D@std@@V?$allocator@D@2@@std@@AEAAAEAV01@_KV<lambda_1>@?0??append@01@QEAAAEAV01@QEBD0@Z@PEBD_K@Z"
.Ltmp161:
	jmp	.LBB40_14
.LBB40_10:
	leaq	(%rcx,%r8), %r15
	movq	%r15, 16(%rsi)
	movq	%rsi, %rbx
	cmpq	$16, %rax
	jb	.LBB40_12
# %bb.11:
	movq	(%rsi), %rbx
.LBB40_12:
	addq	%rbx, %rcx
	movq	%rdi, %rdx
	callq	memmove
	movb	$0, (%rbx,%r15)
.LBB40_14:
	movq	-16(%rbp), %rax
	cmpq	$16, %rax
	jb	.LBB40_22
# %bb.15:
	movq	-40(%rbp), %rcx
	leaq	1(%rax), %rdx
	cmpq	$4096, %rdx                     # imm = 0x1000
	jb	.LBB40_21
# %bb.16:
	movq	-8(%rcx), %rbx
	addq	$-8, %rcx
	subq	%rbx, %rcx
	cmpq	$32, %rcx
	jae	.LBB40_17
# %bb.20:
	addq	$40, %rax
	movq	%rax, %rdx
	movq	%rbx, %rcx
.LBB40_21:
	callq	"??3@YAXPEAX_K@Z"
.LBB40_22:
	movq	-8(%rbp), %rax                  # 8-byte Reload
	movups	(%rax), %xmm0
	movups	16(%rax), %xmm1
	movups	%xmm1, 16(%r14)
	movups	%xmm0, (%r14)
	movq	$0, 16(%rax)
	movq	$15, 24(%rax)
	movb	$0, (%rax)
	movq	%r14, %rax
	addq	$88, %rsp
	popq	%rbx
	popq	%rdi
	popq	%rsi
	popq	%r14
	popq	%r15
	popq	%rbp
	retq
.LBB40_17:
.Ltmp162:
	callq	_invalid_parameter_noinfo_noreturn
.Ltmp163:
# %bb.18:
	int3
	.seh_handlerdata
	.long	("$cppxdata$?_Makestr@_System_error@std@@CA?AV?$basic_string@DU?$char_traits@D@std@@V?$allocator@D@2@@2@Verror_code@2@V32@@Z")@IMGREL
	.section	.text,"xr",discard,"?_Makestr@_System_error@std@@CA?AV?$basic_string@DU?$char_traits@D@std@@V?$allocator@D@2@@2@Verror_code@2@V32@@Z"
	.seh_endproc
	.def	"?dtor$19@?0??_Makestr@_System_error@std@@CA?AV?$basic_string@DU?$char_traits@D@std@@V?$allocator@D@2@@2@Verror_code@2@V32@@Z@4HA";
	.scl	3;
	.type	32;
	.endef
	.p2align	4, 0x90
"?dtor$19@?0??_Makestr@_System_error@std@@CA?AV?$basic_string@DU?$char_traits@D@std@@V?$allocator@D@2@@2@Verror_code@2@V32@@Z@4HA":
.seh_proc "?dtor$19@?0??_Makestr@_System_error@std@@CA?AV?$basic_string@DU?$char_traits@D@std@@V?$allocator@D@2@@2@Verror_code@2@V32@@Z@4HA"
.LBB40_19:
	movq	%rdx, 16(%rsp)
	pushq	%rbp
	.seh_pushreg %rbp
	pushq	%r15
	.seh_pushreg %r15
	pushq	%r14
	.seh_pushreg %r14
	pushq	%rsi
	.seh_pushreg %rsi
	pushq	%rdi
	.seh_pushreg %rdi
	pushq	%rbx
	.seh_pushreg %rbx
	subq	$40, %rsp
	.seh_stackalloc 40
	leaq	80(%rdx), %rbp
	.seh_endprologue
	callq	__std_terminate
	int3
	.seh_handlerdata
	.section	.text,"xr",discard,"?_Makestr@_System_error@std@@CA?AV?$basic_string@DU?$char_traits@D@std@@V?$allocator@D@2@@2@Verror_code@2@V32@@Z"
	.seh_endproc
	.def	"?dtor$23@?0??_Makestr@_System_error@std@@CA?AV?$basic_string@DU?$char_traits@D@std@@V?$allocator@D@2@@2@Verror_code@2@V32@@Z@4HA";
	.scl	3;
	.type	32;
	.endef
	.p2align	4, 0x90
"?dtor$23@?0??_Makestr@_System_error@std@@CA?AV?$basic_string@DU?$char_traits@D@std@@V?$allocator@D@2@@2@Verror_code@2@V32@@Z@4HA":
.seh_proc "?dtor$23@?0??_Makestr@_System_error@std@@CA?AV?$basic_string@DU?$char_traits@D@std@@V?$allocator@D@2@@2@Verror_code@2@V32@@Z@4HA"
.LBB40_23:
	movq	%rdx, 16(%rsp)
	pushq	%rbp
	.seh_pushreg %rbp
	pushq	%r15
	.seh_pushreg %r15
	pushq	%r14
	.seh_pushreg %r14
	pushq	%rsi
	.seh_pushreg %rsi
	pushq	%rdi
	.seh_pushreg %rdi
	pushq	%rbx
	.seh_pushreg %rbx
	subq	$40, %rsp
	.seh_stackalloc 40
	leaq	80(%rdx), %rbp
	.seh_endprologue
	leaq	-40(%rbp), %rcx
	callq	"??1?$basic_string@DU?$char_traits@D@std@@V?$allocator@D@2@@std@@QEAA@XZ"
	nop
	addq	$40, %rsp
	popq	%rbx
	popq	%rdi
	popq	%rsi
	popq	%r14
	popq	%r15
	popq	%rbp
	retq                                    # CLEANUPRET
	.seh_handlerdata
	.section	.text,"xr",discard,"?_Makestr@_System_error@std@@CA?AV?$basic_string@DU?$char_traits@D@std@@V?$allocator@D@2@@2@Verror_code@2@V32@@Z"
	.seh_endproc
	.def	"?dtor$24@?0??_Makestr@_System_error@std@@CA?AV?$basic_string@DU?$char_traits@D@std@@V?$allocator@D@2@@2@Verror_code@2@V32@@Z@4HA";
	.scl	3;
	.type	32;
	.endef
	.p2align	4, 0x90
"?dtor$24@?0??_Makestr@_System_error@std@@CA?AV?$basic_string@DU?$char_traits@D@std@@V?$allocator@D@2@@2@Verror_code@2@V32@@Z@4HA":
.seh_proc "?dtor$24@?0??_Makestr@_System_error@std@@CA?AV?$basic_string@DU?$char_traits@D@std@@V?$allocator@D@2@@2@Verror_code@2@V32@@Z@4HA"
.LBB40_24:
	movq	%rdx, 16(%rsp)
	pushq	%rbp
	.seh_pushreg %rbp
	pushq	%r15
	.seh_pushreg %r15
	pushq	%r14
	.seh_pushreg %r14
	pushq	%rsi
	.seh_pushreg %rsi
	pushq	%rdi
	.seh_pushreg %rdi
	pushq	%rbx
	.seh_pushreg %rbx
	subq	$40, %rsp
	.seh_stackalloc 40
	leaq	80(%rdx), %rbp
	.seh_endprologue
	movq	-8(%rbp), %rcx                  # 8-byte Reload
	callq	"??1?$basic_string@DU?$char_traits@D@std@@V?$allocator@D@2@@std@@QEAA@XZ"
	nop
	addq	$40, %rsp
	popq	%rbx
	popq	%rdi
	popq	%rsi
	popq	%r14
	popq	%r15
	popq	%rbp
	retq                                    # CLEANUPRET
.Lfunc_end27:
	.seh_handlerdata
	.section	.text,"xr",discard,"?_Makestr@_System_error@std@@CA?AV?$basic_string@DU?$char_traits@D@std@@V?$allocator@D@2@@2@Verror_code@2@V32@@Z"
	.seh_endproc
	.section	.xdata,"dr",associative,"?_Makestr@_System_error@std@@CA?AV?$basic_string@DU?$char_traits@D@std@@V?$allocator@D@2@@2@Verror_code@2@V32@@Z"
	.p2align	2
"$cppxdata$?_Makestr@_System_error@std@@CA?AV?$basic_string@DU?$char_traits@D@std@@V?$allocator@D@2@@2@Verror_code@2@V32@@Z":
	.long	429065506                       # MagicNumber
	.long	3                               # MaxState
	.long	("$stateUnwindMap$?_Makestr@_System_error@std@@CA?AV?$basic_string@DU?$char_traits@D@std@@V?$allocator@D@2@@2@Verror_code@2@V32@@Z")@IMGREL # UnwindMap
	.long	0                               # NumTryBlocks
	.long	0                               # TryBlockMap
	.long	6                               # IPMapEntries
	.long	("$ip2state$?_Makestr@_System_error@std@@CA?AV?$basic_string@DU?$char_traits@D@std@@V?$allocator@D@2@@2@Verror_code@2@V32@@Z")@IMGREL # IPToStateXData
	.long	80                              # UnwindHelp
	.long	0                               # ESTypeList
	.long	1                               # EHFlags
"$stateUnwindMap$?_Makestr@_System_error@std@@CA?AV?$basic_string@DU?$char_traits@D@std@@V?$allocator@D@2@@2@Verror_code@2@V32@@Z":
	.long	-1                              # ToState
	.long	"?dtor$19@?0??_Makestr@_System_error@std@@CA?AV?$basic_string@DU?$char_traits@D@std@@V?$allocator@D@2@@2@Verror_code@2@V32@@Z@4HA"@IMGREL # Action
	.long	-1                              # ToState
	.long	"?dtor$24@?0??_Makestr@_System_error@std@@CA?AV?$basic_string@DU?$char_traits@D@std@@V?$allocator@D@2@@2@Verror_code@2@V32@@Z@4HA"@IMGREL # Action
	.long	1                               # ToState
	.long	"?dtor$23@?0??_Makestr@_System_error@std@@CA?AV?$basic_string@DU?$char_traits@D@std@@V?$allocator@D@2@@2@Verror_code@2@V32@@Z@4HA"@IMGREL # Action
"$ip2state$?_Makestr@_System_error@std@@CA?AV?$basic_string@DU?$char_traits@D@std@@V?$allocator@D@2@@2@Verror_code@2@V32@@Z":
	.long	.Lfunc_begin27@IMGREL           # IP
	.long	-1                              # ToState
	.long	.Ltmp156@IMGREL+1               # IP
	.long	1                               # ToState
	.long	.Ltmp160@IMGREL+1               # IP
	.long	2                               # ToState
	.long	.Ltmp161@IMGREL+1               # IP
	.long	-1                              # ToState
	.long	.Ltmp162@IMGREL+1               # IP
	.long	0                               # ToState
	.long	.Ltmp163@IMGREL+1               # IP
	.long	-1                              # ToState
	.section	.text,"xr",discard,"?_Makestr@_System_error@std@@CA?AV?$basic_string@DU?$char_traits@D@std@@V?$allocator@D@2@@2@Verror_code@2@V32@@Z"
                                        # -- End function
	.def	"??_G_System_error@std@@UEAAPEAXI@Z";
	.scl	2;
	.type	32;
	.endef
	.section	.text,"xr",discard,"??_G_System_error@std@@UEAAPEAXI@Z"
	.globl	"??_G_System_error@std@@UEAAPEAXI@Z" # -- Begin function ??_G_System_error@std@@UEAAPEAXI@Z
	.p2align	4, 0x90
"??_G_System_error@std@@UEAAPEAXI@Z":   # @"??_G_System_error@std@@UEAAPEAXI@Z"
.Lfunc_begin28:
.seh_proc "??_G_System_error@std@@UEAAPEAXI@Z"
	.seh_handler __CxxFrameHandler3, @unwind, @except
# %bb.0:
	pushq	%rbp
	.seh_pushreg %rbp
	pushq	%rsi
	.seh_pushreg %rsi
	pushq	%rdi
	.seh_pushreg %rdi
	subq	$48, %rsp
	.seh_stackalloc 48
	leaq	48(%rsp), %rbp
	.seh_setframe %rbp, 48
	.seh_endprologue
	movq	$-2, -8(%rbp)
	movl	%edx, %edi
	movq	%rcx, %rsi
	leaq	"??_7exception@std@@6B@"(%rip), %rax
	movq	%rax, (%rcx)
	addq	$8, %rcx
.Ltmp164:
	callq	__std_exception_destroy
.Ltmp165:
# %bb.1:
	testl	%edi, %edi
	je	.LBB41_3
# %bb.2:
	movq	%rsi, %rcx
	callq	"??3@YAXPEAX@Z"
.LBB41_3:
	movq	%rsi, %rax
	addq	$48, %rsp
	popq	%rdi
	popq	%rsi
	popq	%rbp
	retq
	.seh_handlerdata
	.long	("$cppxdata$??_G_System_error@std@@UEAAPEAXI@Z")@IMGREL
	.section	.text,"xr",discard,"??_G_System_error@std@@UEAAPEAXI@Z"
	.seh_endproc
	.def	"?dtor$4@?0???_G_System_error@std@@UEAAPEAXI@Z@4HA";
	.scl	3;
	.type	32;
	.endef
	.p2align	4, 0x90
"?dtor$4@?0???_G_System_error@std@@UEAAPEAXI@Z@4HA":
.seh_proc "?dtor$4@?0???_G_System_error@std@@UEAAPEAXI@Z@4HA"
.LBB41_4:
	movq	%rdx, 16(%rsp)
	pushq	%rbp
	.seh_pushreg %rbp
	pushq	%rsi
	.seh_pushreg %rsi
	pushq	%rdi
	.seh_pushreg %rdi
	subq	$32, %rsp
	.seh_stackalloc 32
	leaq	48(%rdx), %rbp
	.seh_endprologue
	callq	__std_terminate
	int3
.Lfunc_end28:
	.seh_handlerdata
	.section	.text,"xr",discard,"??_G_System_error@std@@UEAAPEAXI@Z"
	.seh_endproc
	.section	.xdata,"dr",associative,"??_G_System_error@std@@UEAAPEAXI@Z"
	.p2align	2
"$cppxdata$??_G_System_error@std@@UEAAPEAXI@Z":
	.long	429065506                       # MagicNumber
	.long	1                               # MaxState
	.long	("$stateUnwindMap$??_G_System_error@std@@UEAAPEAXI@Z")@IMGREL # UnwindMap
	.long	0                               # NumTryBlocks
	.long	0                               # TryBlockMap
	.long	3                               # IPMapEntries
	.long	("$ip2state$??_G_System_error@std@@UEAAPEAXI@Z")@IMGREL # IPToStateXData
	.long	40                              # UnwindHelp
	.long	0                               # ESTypeList
	.long	1                               # EHFlags
"$stateUnwindMap$??_G_System_error@std@@UEAAPEAXI@Z":
	.long	-1                              # ToState
	.long	"?dtor$4@?0???_G_System_error@std@@UEAAPEAXI@Z@4HA"@IMGREL # Action
"$ip2state$??_G_System_error@std@@UEAAPEAXI@Z":
	.long	.Lfunc_begin28@IMGREL           # IP
	.long	-1                              # ToState
	.long	.Ltmp164@IMGREL+1               # IP
	.long	0                               # ToState
	.long	.Ltmp165@IMGREL+1               # IP
	.long	-1                              # ToState
	.section	.text,"xr",discard,"??_G_System_error@std@@UEAAPEAXI@Z"
                                        # -- End function
	.def	"??$_Reallocate_grow_by@V<lambda_1>@?0??append@?$basic_string@DU?$char_traits@D@std@@V?$allocator@D@2@@std@@QEAAAEAV34@QEBD_K@Z@PEBD_K@?$basic_string@DU?$char_traits@D@std@@V?$allocator@D@2@@std@@AEAAAEAV01@_KV<lambda_1>@?0??append@01@QEAAAEAV01@QEBD0@Z@PEBD_K@Z";
	.scl	2;
	.type	32;
	.endef
	.section	.text,"xr",discard,"??$_Reallocate_grow_by@V<lambda_1>@?0??append@?$basic_string@DU?$char_traits@D@std@@V?$allocator@D@2@@std@@QEAAAEAV34@QEBD_K@Z@PEBD_K@?$basic_string@DU?$char_traits@D@std@@V?$allocator@D@2@@std@@AEAAAEAV01@_KV<lambda_1>@?0??append@01@QEAAAEAV01@QEBD0@Z@PEBD_K@Z"
	.globl	"??$_Reallocate_grow_by@V<lambda_1>@?0??append@?$basic_string@DU?$char_traits@D@std@@V?$allocator@D@2@@std@@QEAAAEAV34@QEBD_K@Z@PEBD_K@?$basic_string@DU?$char_traits@D@std@@V?$allocator@D@2@@std@@AEAAAEAV01@_KV<lambda_1>@?0??append@01@QEAAAEAV01@QEBD0@Z@PEBD_K@Z" # -- Begin function ??$_Reallocate_grow_by@V<lambda_1>@?0??append@?$basic_string@DU?$char_traits@D@std@@V?$allocator@D@2@@std@@QEAAAEAV34@QEBD_K@Z@PEBD_K@?$basic_string@DU?$char_traits@D@std@@V?$allocator@D@2@@std@@AEAAAEAV01@_KV<lambda_1>@?0??append@01@QEAAAEAV01@QEBD0@Z@PEBD_K@Z
	.p2align	4, 0x90
"??$_Reallocate_grow_by@V<lambda_1>@?0??append@?$basic_string@DU?$char_traits@D@std@@V?$allocator@D@2@@std@@QEAAAEAV34@QEBD_K@Z@PEBD_K@?$basic_string@DU?$char_traits@D@std@@V?$allocator@D@2@@std@@AEAAAEAV01@_KV<lambda_1>@?0??append@01@QEAAAEAV01@QEBD0@Z@PEBD_K@Z": # @"??$_Reallocate_grow_by@V<lambda_1>@?0??append@?$basic_string@DU?$char_traits@D@std@@V?$allocator@D@2@@std@@QEAAAEAV34@QEBD_K@Z@PEBD_K@?$basic_string@DU?$char_traits@D@std@@V?$allocator@D@2@@std@@AEAAAEAV01@_KV<lambda_1>@?0??append@01@QEAAAEAV01@QEBD0@Z@PEBD_K@Z"
.Lfunc_begin29:
.seh_proc "??$_Reallocate_grow_by@V<lambda_1>@?0??append@?$basic_string@DU?$char_traits@D@std@@V?$allocator@D@2@@std@@QEAAAEAV34@QEBD_K@Z@PEBD_K@?$basic_string@DU?$char_traits@D@std@@V?$allocator@D@2@@std@@AEAAAEAV01@_KV<lambda_1>@?0??append@01@QEAAAEAV01@QEBD0@Z@PEBD_K@Z"
	.seh_handler __CxxFrameHandler3, @unwind, @except
# %bb.0:
	pushq	%rbp
	.seh_pushreg %rbp
	pushq	%r15
	.seh_pushreg %r15
	pushq	%r14
	.seh_pushreg %r14
	pushq	%r13
	.seh_pushreg %r13
	pushq	%r12
	.seh_pushreg %r12
	pushq	%rsi
	.seh_pushreg %rsi
	pushq	%rdi
	.seh_pushreg %rdi
	pushq	%rbx
	.seh_pushreg %rbx
	subq	$40, %rsp
	.seh_stackalloc 40
	leaq	32(%rsp), %rbp
	.seh_setframe %rbp, 32
	.seh_endprologue
	movq	$-2, (%rbp)
	movq	16(%rcx), %rdi
	movabsq	$9223372036854775807, %r14      # imm = 0x7FFFFFFFFFFFFFFF
	movq	%rdi, %rax
	xorq	%r14, %rax
	cmpq	%rdx, %rax
	jb	.LBB42_20
# %bb.1:
	movq	%rdx, %rsi
	movq	%rcx, %r15
	addq	%rdi, %rsi
	movq	24(%rcx), %r13
	movq	%rsi, %rax
	orq	$15, %rax
	js	.LBB42_4
# %bb.2:
	movq	%r13, %rcx
	shrq	%rcx
	movabsq	$9223372036854775807, %r14      # imm = 0x7FFFFFFFFFFFFFFF
	movq	%rcx, %rdx
	xorq	%r14, %rdx
	cmpq	%r13, %rdx
	jb	.LBB42_4
# %bb.3:
	addq	%r13, %rcx
	cmpq	%rcx, %rax
	cmovaq	%rax, %rcx
	movq	%rcx, %r14
.LBB42_4:
	leaq	1(%r14), %rcx
	cmpq	$4096, %rcx                     # imm = 0x1000
	jb	.LBB42_7
# %bb.5:
	cmpq	$-39, %rcx
	jae	.LBB42_21
# %bb.6:
	movq	%r9, %r12
	leaq	40(%r14), %rcx
	callq	"??2@YAPEAX_K@Z"
	leaq	39(%rax), %rbx
	andq	$-32, %rbx
	movq	%rax, -8(%rbx)
	jmp	.LBB42_10
.LBB42_7:
	movq	%r9, %r12
	testq	%rcx, %rcx
	je	.LBB42_8
# %bb.9:
	callq	"??2@YAPEAX_K@Z"
	movq	%rax, %rbx
	jmp	.LBB42_10
.LBB42_8:
	xorl	%ebx, %ebx
.LBB42_10:
	movq	%rsi, 16(%r15)
	movq	%r14, 24(%r15)
	cmpq	$16, %r13
	jb	.LBB42_18
# %bb.11:
	movq	(%r15), %rsi
	movq	%rbx, %rcx
	movq	%rsi, %rdx
	movq	%rdi, %r8
	callq	memcpy
	leaq	(%rbx,%rdi), %rcx
	movq	%r12, %rdx
	movq	112(%rbp), %r14
	movq	%r14, %r8
	callq	memcpy
	addq	%r14, %rdi
	movb	$0, (%rbx,%rdi)
	leaq	1(%r13), %rdx
	cmpq	$4096, %rdx                     # imm = 0x1000
	jb	.LBB42_17
# %bb.12:
	movq	-8(%rsi), %rax
	addq	$-8, %rsi
	subq	%rax, %rsi
	cmpq	$32, %rsi
	jae	.LBB42_13
# %bb.16:
	addq	$40, %r13
	movq	%r13, %rdx
	movq	%rax, %rsi
.LBB42_17:
	movq	%rsi, %rcx
	callq	"??3@YAXPEAX_K@Z"
	jmp	.LBB42_19
.LBB42_18:
	movq	%rbx, %rcx
	movq	%r15, %rdx
	movq	%rdi, %r8
	callq	memcpy
	leaq	(%rbx,%rdi), %rcx
	movq	%r12, %rdx
	movq	112(%rbp), %rsi
	movq	%rsi, %r8
	callq	memcpy
	addq	%rsi, %rdi
	movb	$0, (%rbx,%rdi)
.LBB42_19:
	movq	%rbx, (%r15)
	movq	%r15, %rax
	addq	$40, %rsp
	popq	%rbx
	popq	%rdi
	popq	%rsi
	popq	%r12
	popq	%r13
	popq	%r14
	popq	%r15
	popq	%rbp
	retq
.LBB42_20:
	callq	"?_Xlen_string@std@@YAXXZ"
.LBB42_21:
	callq	"?_Throw_bad_array_new_length@std@@YAXXZ"
.LBB42_13:
.Ltmp166:
	callq	_invalid_parameter_noinfo_noreturn
.Ltmp167:
# %bb.14:
	int3
	.seh_handlerdata
	.long	("$cppxdata$??$_Reallocate_grow_by@V<lambda_1>@?0??append@?$basic_string@DU?$char_traits@D@std@@V?$allocator@D@2@@std@@QEAAAEAV34@QEBD_K@Z@PEBD_K@?$basic_string@DU?$char_traits@D@std@@V?$allocator@D@2@@std@@AEAAAEAV01@_KV<lambda_1>@?0??append@01@QEAAAEAV01@QEBD0@Z@PEBD_K@Z")@IMGREL
	.section	.text,"xr",discard,"??$_Reallocate_grow_by@V<lambda_1>@?0??append@?$basic_string@DU?$char_traits@D@std@@V?$allocator@D@2@@std@@QEAAAEAV34@QEBD_K@Z@PEBD_K@?$basic_string@DU?$char_traits@D@std@@V?$allocator@D@2@@std@@AEAAAEAV01@_KV<lambda_1>@?0??append@01@QEAAAEAV01@QEBD0@Z@PEBD_K@Z"
	.seh_endproc
	.def	"?dtor$15@?0???$_Reallocate_grow_by@V<lambda_1>@?0??append@?$basic_string@DU?$char_traits@D@std@@V?$allocator@D@2@@std@@QEAAAEAV34@QEBD_K@Z@PEBD_K@?$basic_string@DU?$char_traits@D@std@@V?$allocator@D@2@@std@@AEAAAEAV01@_KV<lambda_1>@?0??append@01@QEAAAEAV01@QEBD0@Z@PEBD_K@Z@4HA";
	.scl	3;
	.type	32;
	.endef
	.p2align	4, 0x90
"?dtor$15@?0???$_Reallocate_grow_by@V<lambda_1>@?0??append@?$basic_string@DU?$char_traits@D@std@@V?$allocator@D@2@@std@@QEAAAEAV34@QEBD_K@Z@PEBD_K@?$basic_string@DU?$char_traits@D@std@@V?$allocator@D@2@@std@@AEAAAEAV01@_KV<lambda_1>@?0??append@01@QEAAAEAV01@QEBD0@Z@PEBD_K@Z@4HA":
.seh_proc "?dtor$15@?0???$_Reallocate_grow_by@V<lambda_1>@?0??append@?$basic_string@DU?$char_traits@D@std@@V?$allocator@D@2@@std@@QEAAAEAV34@QEBD_K@Z@PEBD_K@?$basic_string@DU?$char_traits@D@std@@V?$allocator@D@2@@std@@AEAAAEAV01@_KV<lambda_1>@?0??append@01@QEAAAEAV01@QEBD0@Z@PEBD_K@Z@4HA"
.LBB42_15:
	movq	%rdx, 16(%rsp)
	pushq	%rbp
	.seh_pushreg %rbp
	pushq	%r15
	.seh_pushreg %r15
	pushq	%r14
	.seh_pushreg %r14
	pushq	%r13
	.seh_pushreg %r13
	pushq	%r12
	.seh_pushreg %r12
	pushq	%rsi
	.seh_pushreg %rsi
	pushq	%rdi
	.seh_pushreg %rdi
	pushq	%rbx
	.seh_pushreg %rbx
	subq	$40, %rsp
	.seh_stackalloc 40
	leaq	32(%rdx), %rbp
	.seh_endprologue
	callq	__std_terminate
	int3
.Lfunc_end29:
	.seh_handlerdata
	.section	.text,"xr",discard,"??$_Reallocate_grow_by@V<lambda_1>@?0??append@?$basic_string@DU?$char_traits@D@std@@V?$allocator@D@2@@std@@QEAAAEAV34@QEBD_K@Z@PEBD_K@?$basic_string@DU?$char_traits@D@std@@V?$allocator@D@2@@std@@AEAAAEAV01@_KV<lambda_1>@?0??append@01@QEAAAEAV01@QEBD0@Z@PEBD_K@Z"
	.seh_endproc
	.section	.xdata,"dr",associative,"??$_Reallocate_grow_by@V<lambda_1>@?0??append@?$basic_string@DU?$char_traits@D@std@@V?$allocator@D@2@@std@@QEAAAEAV34@QEBD_K@Z@PEBD_K@?$basic_string@DU?$char_traits@D@std@@V?$allocator@D@2@@std@@AEAAAEAV01@_KV<lambda_1>@?0??append@01@QEAAAEAV01@QEBD0@Z@PEBD_K@Z"
	.p2align	2
"$cppxdata$??$_Reallocate_grow_by@V<lambda_1>@?0??append@?$basic_string@DU?$char_traits@D@std@@V?$allocator@D@2@@std@@QEAAAEAV34@QEBD_K@Z@PEBD_K@?$basic_string@DU?$char_traits@D@std@@V?$allocator@D@2@@std@@AEAAAEAV01@_KV<lambda_1>@?0??append@01@QEAAAEAV01@QEBD0@Z@PEBD_K@Z":
	.long	429065506                       # MagicNumber
	.long	1                               # MaxState
	.long	("$stateUnwindMap$??$_Reallocate_grow_by@V<lambda_1>@?0??append@?$basic_string@DU?$char_traits@D@std@@V?$allocator@D@2@@std@@QEAAAEAV34@QEBD_K@Z@PEBD_K@?$basic_string@DU?$char_traits@D@std@@V?$allocator@D@2@@std@@AEAAAEAV01@_KV<lambda_1>@?0??append@01@QEAAAEAV01@QEBD0@Z@PEBD_K@Z")@IMGREL # UnwindMap
	.long	0                               # NumTryBlocks
	.long	0                               # TryBlockMap
	.long	3                               # IPMapEntries
	.long	("$ip2state$??$_Reallocate_grow_by@V<lambda_1>@?0??append@?$basic_string@DU?$char_traits@D@std@@V?$allocator@D@2@@std@@QEAAAEAV34@QEBD_K@Z@PEBD_K@?$basic_string@DU?$char_traits@D@std@@V?$allocator@D@2@@std@@AEAAAEAV01@_KV<lambda_1>@?0??append@01@QEAAAEAV01@QEBD0@Z@PEBD_K@Z")@IMGREL # IPToStateXData
	.long	32                              # UnwindHelp
	.long	0                               # ESTypeList
	.long	1                               # EHFlags
"$stateUnwindMap$??$_Reallocate_grow_by@V<lambda_1>@?0??append@?$basic_string@DU?$char_traits@D@std@@V?$allocator@D@2@@std@@QEAAAEAV34@QEBD_K@Z@PEBD_K@?$basic_string@DU?$char_traits@D@std@@V?$allocator@D@2@@std@@AEAAAEAV01@_KV<lambda_1>@?0??append@01@QEAAAEAV01@QEBD0@Z@PEBD_K@Z":
	.long	-1                              # ToState
	.long	"?dtor$15@?0???$_Reallocate_grow_by@V<lambda_1>@?0??append@?$basic_string@DU?$char_traits@D@std@@V?$allocator@D@2@@std@@QEAAAEAV34@QEBD_K@Z@PEBD_K@?$basic_string@DU?$char_traits@D@std@@V?$allocator@D@2@@std@@AEAAAEAV01@_KV<lambda_1>@?0??append@01@QEAAAEAV01@QEBD0@Z@PEBD_K@Z@4HA"@IMGREL # Action
"$ip2state$??$_Reallocate_grow_by@V<lambda_1>@?0??append@?$basic_string@DU?$char_traits@D@std@@V?$allocator@D@2@@std@@QEAAAEAV34@QEBD_K@Z@PEBD_K@?$basic_string@DU?$char_traits@D@std@@V?$allocator@D@2@@std@@AEAAAEAV01@_KV<lambda_1>@?0??append@01@QEAAAEAV01@QEBD0@Z@PEBD_K@Z":
	.long	.Lfunc_begin29@IMGREL           # IP
	.long	-1                              # ToState
	.long	.Ltmp166@IMGREL+1               # IP
	.long	0                               # ToState
	.long	.Ltmp167@IMGREL+1               # IP
	.long	-1                              # ToState
	.section	.text,"xr",discard,"??$_Reallocate_grow_by@V<lambda_1>@?0??append@?$basic_string@DU?$char_traits@D@std@@V?$allocator@D@2@@std@@QEAAAEAV34@QEBD_K@Z@PEBD_K@?$basic_string@DU?$char_traits@D@std@@V?$allocator@D@2@@std@@AEAAAEAV01@_KV<lambda_1>@?0??append@01@QEAAAEAV01@QEBD0@Z@PEBD_K@Z"
                                        # -- End function
	.def	"??_Gruntime_error@std@@UEAAPEAXI@Z";
	.scl	2;
	.type	32;
	.endef
	.section	.text,"xr",discard,"??_Gruntime_error@std@@UEAAPEAXI@Z"
	.globl	"??_Gruntime_error@std@@UEAAPEAXI@Z" # -- Begin function ??_Gruntime_error@std@@UEAAPEAXI@Z
	.p2align	4, 0x90
"??_Gruntime_error@std@@UEAAPEAXI@Z":   # @"??_Gruntime_error@std@@UEAAPEAXI@Z"
.Lfunc_begin30:
.seh_proc "??_Gruntime_error@std@@UEAAPEAXI@Z"
	.seh_handler __CxxFrameHandler3, @unwind, @except
# %bb.0:
	pushq	%rbp
	.seh_pushreg %rbp
	pushq	%rsi
	.seh_pushreg %rsi
	pushq	%rdi
	.seh_pushreg %rdi
	subq	$48, %rsp
	.seh_stackalloc 48
	leaq	48(%rsp), %rbp
	.seh_setframe %rbp, 48
	.seh_endprologue
	movq	$-2, -8(%rbp)
	movl	%edx, %edi
	movq	%rcx, %rsi
	leaq	"??_7exception@std@@6B@"(%rip), %rax
	movq	%rax, (%rcx)
	addq	$8, %rcx
.Ltmp168:
	callq	__std_exception_destroy
.Ltmp169:
# %bb.1:
	testl	%edi, %edi
	je	.LBB43_3
# %bb.2:
	movq	%rsi, %rcx
	callq	"??3@YAXPEAX@Z"
.LBB43_3:
	movq	%rsi, %rax
	addq	$48, %rsp
	popq	%rdi
	popq	%rsi
	popq	%rbp
	retq
	.seh_handlerdata
	.long	("$cppxdata$??_Gruntime_error@std@@UEAAPEAXI@Z")@IMGREL
	.section	.text,"xr",discard,"??_Gruntime_error@std@@UEAAPEAXI@Z"
	.seh_endproc
	.def	"?dtor$4@?0???_Gruntime_error@std@@UEAAPEAXI@Z@4HA";
	.scl	3;
	.type	32;
	.endef
	.p2align	4, 0x90
"?dtor$4@?0???_Gruntime_error@std@@UEAAPEAXI@Z@4HA":
.seh_proc "?dtor$4@?0???_Gruntime_error@std@@UEAAPEAXI@Z@4HA"
.LBB43_4:
	movq	%rdx, 16(%rsp)
	pushq	%rbp
	.seh_pushreg %rbp
	pushq	%rsi
	.seh_pushreg %rsi
	pushq	%rdi
	.seh_pushreg %rdi
	subq	$32, %rsp
	.seh_stackalloc 32
	leaq	48(%rdx), %rbp
	.seh_endprologue
	callq	__std_terminate
	int3
.Lfunc_end30:
	.seh_handlerdata
	.section	.text,"xr",discard,"??_Gruntime_error@std@@UEAAPEAXI@Z"
	.seh_endproc
	.section	.xdata,"dr",associative,"??_Gruntime_error@std@@UEAAPEAXI@Z"
	.p2align	2
"$cppxdata$??_Gruntime_error@std@@UEAAPEAXI@Z":
	.long	429065506                       # MagicNumber
	.long	1                               # MaxState
	.long	("$stateUnwindMap$??_Gruntime_error@std@@UEAAPEAXI@Z")@IMGREL # UnwindMap
	.long	0                               # NumTryBlocks
	.long	0                               # TryBlockMap
	.long	3                               # IPMapEntries
	.long	("$ip2state$??_Gruntime_error@std@@UEAAPEAXI@Z")@IMGREL # IPToStateXData
	.long	40                              # UnwindHelp
	.long	0                               # ESTypeList
	.long	1                               # EHFlags
"$stateUnwindMap$??_Gruntime_error@std@@UEAAPEAXI@Z":
	.long	-1                              # ToState
	.long	"?dtor$4@?0???_Gruntime_error@std@@UEAAPEAXI@Z@4HA"@IMGREL # Action
"$ip2state$??_Gruntime_error@std@@UEAAPEAXI@Z":
	.long	.Lfunc_begin30@IMGREL           # IP
	.long	-1                              # ToState
	.long	.Ltmp168@IMGREL+1               # IP
	.long	0                               # ToState
	.long	.Ltmp169@IMGREL+1               # IP
	.long	-1                              # ToState
	.section	.text,"xr",discard,"??_Gruntime_error@std@@UEAAPEAXI@Z"
                                        # -- End function
	.def	"?_Osfx@?$basic_ostream@DU?$char_traits@D@std@@@std@@QEAAXXZ";
	.scl	2;
	.type	32;
	.endef
	.section	.text,"xr",discard,"?_Osfx@?$basic_ostream@DU?$char_traits@D@std@@@std@@QEAAXXZ"
	.globl	"?_Osfx@?$basic_ostream@DU?$char_traits@D@std@@@std@@QEAAXXZ" # -- Begin function ?_Osfx@?$basic_ostream@DU?$char_traits@D@std@@@std@@QEAAXXZ
	.p2align	4, 0x90
"?_Osfx@?$basic_ostream@DU?$char_traits@D@std@@@std@@QEAAXXZ": # @"?_Osfx@?$basic_ostream@DU?$char_traits@D@std@@@std@@QEAAXXZ"
.Lfunc_begin31:
.seh_proc "?_Osfx@?$basic_ostream@DU?$char_traits@D@std@@@std@@QEAAXXZ"
	.seh_handler __CxxFrameHandler3, @unwind, @except
# %bb.0:
	pushq	%rbp
	.seh_pushreg %rbp
	pushq	%rsi
	.seh_pushreg %rsi
	subq	$120, %rsp
	.seh_stackalloc 120
	leaq	112(%rsp), %rbp
	.seh_setframe %rbp, 112
	.seh_endprologue
	movq	$-2, (%rbp)
	movq	(%rcx), %rax
	movslq	4(%rax), %rax
	cmpl	$0, 16(%rcx,%rax)
	jne	.LBB44_9
# %bb.1:
	movq	%rcx, %rsi
	testb	$2, 24(%rcx,%rax)
	je	.LBB44_9
# %bb.2:
	movq	72(%rsi,%rax), %rcx
	movq	(%rcx), %rax
.Ltmp170:
	callq	*104(%rax)
.Ltmp171:
# %bb.3:
	cmpl	$-1, %eax
	jne	.LBB44_9
# %bb.4:
	movq	(%rsi), %rax
	movslq	4(%rax), %rcx
	movl	16(%rsi,%rcx), %eax
	andl	$19, %eax
	orl	$4, %eax
	movl	%eax, 16(%rsi,%rcx)
	movl	20(%rsi,%rcx), %ecx
	andl	%ecx, %eax
	jne	.LBB44_5
.LBB44_9:                               # Block address taken
$ehgcr_44_9:
	addq	$120, %rsp
	popq	%rsi
	popq	%rbp
	retq
.LBB44_5:
	testb	$2, %al
	leaq	"??_C@_0BF@OOHOMBOF@ios_base?3?3eofbit?5set?$AA@"(%rip), %rax
	leaq	"??_C@_0BG@FMKFHCIL@ios_base?3?3failbit?5set?$AA@"(%rip), %rdx
	cmoveq	%rax, %rdx
	testb	$4, %cl
	leaq	"??_C@_0BF@PHHKMMFD@ios_base?3?3badbit?5set?$AA@"(%rip), %rsi
	cmoveq	%rdx, %rsi
	leaq	-32(%rbp), %rcx
	movl	$1, %edx
	callq	"?make_error_code@std@@YA?AVerror_code@1@W4io_errc@1@@Z"
	movups	-32(%rbp), %xmm0
	movaps	%xmm0, -16(%rbp)
.Ltmp172:
	leaq	-72(%rbp), %rcx
	leaq	-16(%rbp), %rdx
	movq	%rsi, %r8
	callq	"??0system_error@std@@QEAA@Verror_code@1@PEBD@Z"
.Ltmp173:
# %bb.6:
	leaq	"??_7failure@ios_base@std@@6B@"(%rip), %rax
	movq	%rax, -72(%rbp)
.Ltmp174:
	leaq	"_TI5?AVfailure@ios_base@std@@"(%rip), %rdx
	leaq	-72(%rbp), %rcx
	callq	_CxxThrowException
.Ltmp175:
# %bb.7:
	int3
	.seh_handlerdata
	.long	("$cppxdata$?_Osfx@?$basic_ostream@DU?$char_traits@D@std@@@std@@QEAAXXZ")@IMGREL
	.section	.text,"xr",discard,"?_Osfx@?$basic_ostream@DU?$char_traits@D@std@@@std@@QEAAXXZ"
	.seh_endproc
	.def	"?catch$8@?0??_Osfx@?$basic_ostream@DU?$char_traits@D@std@@@std@@QEAAXXZ@4HA";
	.scl	3;
	.type	32;
	.endef
	.p2align	4, 0x90
"?catch$8@?0??_Osfx@?$basic_ostream@DU?$char_traits@D@std@@@std@@QEAAXXZ@4HA":
.seh_proc "?catch$8@?0??_Osfx@?$basic_ostream@DU?$char_traits@D@std@@@std@@QEAAXXZ@4HA"
	.seh_handler __CxxFrameHandler3, @unwind, @except
.LBB44_8:
	movq	%rdx, 16(%rsp)
	pushq	%rbp
	.seh_pushreg %rbp
	pushq	%rsi
	.seh_pushreg %rsi
	subq	$40, %rsp
	.seh_stackalloc 40
	leaq	112(%rdx), %rbp
	.seh_endprologue
	leaq	.LBB44_9(%rip), %rax
	addq	$40, %rsp
	popq	%rsi
	popq	%rbp
	retq                                    # CATCHRET
.Lfunc_end31:
	.seh_handlerdata
	.long	("$cppxdata$?_Osfx@?$basic_ostream@DU?$char_traits@D@std@@@std@@QEAAXXZ")@IMGREL
	.section	.text,"xr",discard,"?_Osfx@?$basic_ostream@DU?$char_traits@D@std@@@std@@QEAAXXZ"
	.seh_endproc
	.section	.xdata,"dr",associative,"?_Osfx@?$basic_ostream@DU?$char_traits@D@std@@@std@@QEAAXXZ"
	.p2align	2
"$cppxdata$?_Osfx@?$basic_ostream@DU?$char_traits@D@std@@@std@@QEAAXXZ":
	.long	429065506                       # MagicNumber
	.long	2                               # MaxState
	.long	("$stateUnwindMap$?_Osfx@?$basic_ostream@DU?$char_traits@D@std@@@std@@QEAAXXZ")@IMGREL # UnwindMap
	.long	1                               # NumTryBlocks
	.long	("$tryMap$?_Osfx@?$basic_ostream@DU?$char_traits@D@std@@@std@@QEAAXXZ")@IMGREL # TryBlockMap
	.long	4                               # IPMapEntries
	.long	("$ip2state$?_Osfx@?$basic_ostream@DU?$char_traits@D@std@@@std@@QEAAXXZ")@IMGREL # IPToStateXData
	.long	112                             # UnwindHelp
	.long	0                               # ESTypeList
	.long	1                               # EHFlags
"$stateUnwindMap$?_Osfx@?$basic_ostream@DU?$char_traits@D@std@@@std@@QEAAXXZ":
	.long	-1                              # ToState
	.long	0                               # Action
	.long	-1                              # ToState
	.long	0                               # Action
"$tryMap$?_Osfx@?$basic_ostream@DU?$char_traits@D@std@@@std@@QEAAXXZ":
	.long	0                               # TryLow
	.long	0                               # TryHigh
	.long	1                               # CatchHigh
	.long	1                               # NumCatches
	.long	("$handlerMap$0$?_Osfx@?$basic_ostream@DU?$char_traits@D@std@@@std@@QEAAXXZ")@IMGREL # HandlerArray
"$handlerMap$0$?_Osfx@?$basic_ostream@DU?$char_traits@D@std@@@std@@QEAAXXZ":
	.long	64                              # Adjectives
	.long	0                               # Type
	.long	0                               # CatchObjOffset
	.long	"?catch$8@?0??_Osfx@?$basic_ostream@DU?$char_traits@D@std@@@std@@QEAAXXZ@4HA"@IMGREL # Handler
	.long	72                              # ParentFrameOffset
"$ip2state$?_Osfx@?$basic_ostream@DU?$char_traits@D@std@@@std@@QEAAXXZ":
	.long	.Lfunc_begin31@IMGREL           # IP
	.long	-1                              # ToState
	.long	.Ltmp170@IMGREL+1               # IP
	.long	0                               # ToState
	.long	.Ltmp175@IMGREL+1               # IP
	.long	-1                              # ToState
	.long	"?catch$8@?0??_Osfx@?$basic_ostream@DU?$char_traits@D@std@@@std@@QEAAXXZ@4HA"@IMGREL # IP
	.long	1                               # ToState
	.section	.text,"xr",discard,"?_Osfx@?$basic_ostream@DU?$char_traits@D@std@@@std@@QEAAXXZ"
                                        # -- End function
	.def	"??$use_facet@V?$num_put@DV?$ostreambuf_iterator@DU?$char_traits@D@std@@@std@@@std@@@std@@YAAEBV?$num_put@DV?$ostreambuf_iterator@DU?$char_traits@D@std@@@std@@@0@AEBVlocale@0@@Z";
	.scl	2;
	.type	32;
	.endef
	.section	.text,"xr",discard,"??$use_facet@V?$num_put@DV?$ostreambuf_iterator@DU?$char_traits@D@std@@@std@@@std@@@std@@YAAEBV?$num_put@DV?$ostreambuf_iterator@DU?$char_traits@D@std@@@std@@@0@AEBVlocale@0@@Z"
	.globl	"??$use_facet@V?$num_put@DV?$ostreambuf_iterator@DU?$char_traits@D@std@@@std@@@std@@@std@@YAAEBV?$num_put@DV?$ostreambuf_iterator@DU?$char_traits@D@std@@@std@@@0@AEBVlocale@0@@Z" # -- Begin function ??$use_facet@V?$num_put@DV?$ostreambuf_iterator@DU?$char_traits@D@std@@@std@@@std@@@std@@YAAEBV?$num_put@DV?$ostreambuf_iterator@DU?$char_traits@D@std@@@std@@@0@AEBVlocale@0@@Z
	.p2align	4, 0x90
"??$use_facet@V?$num_put@DV?$ostreambuf_iterator@DU?$char_traits@D@std@@@std@@@std@@@std@@YAAEBV?$num_put@DV?$ostreambuf_iterator@DU?$char_traits@D@std@@@std@@@0@AEBVlocale@0@@Z": # @"??$use_facet@V?$num_put@DV?$ostreambuf_iterator@DU?$char_traits@D@std@@@std@@@std@@@std@@YAAEBV?$num_put@DV?$ostreambuf_iterator@DU?$char_traits@D@std@@@std@@@0@AEBVlocale@0@@Z"
.Lfunc_begin32:
.seh_proc "??$use_facet@V?$num_put@DV?$ostreambuf_iterator@DU?$char_traits@D@std@@@std@@@std@@@std@@YAAEBV?$num_put@DV?$ostreambuf_iterator@DU?$char_traits@D@std@@@std@@@0@AEBVlocale@0@@Z"
	.seh_handler __CxxFrameHandler3, @unwind, @except
# %bb.0:
	pushq	%rbp
	.seh_pushreg %rbp
	pushq	%r14
	.seh_pushreg %r14
	pushq	%rsi
	.seh_pushreg %rsi
	pushq	%rdi
	.seh_pushreg %rdi
	pushq	%rbx
	.seh_pushreg %rbx
	subq	$160, %rsp
	.seh_stackalloc 160
	leaq	128(%rsp), %rbp
	.seh_setframe %rbp, 128
	.seh_endprologue
	movq	$-2, 24(%rbp)
	movq	%rcx, %rsi
	leaq	16(%rbp), %rcx
	xorl	%edx, %edx
	callq	"??0_Lockit@std@@QEAA@H@Z"
	movq	"?_Psave@?$_Facetptr@V?$num_put@DV?$ostreambuf_iterator@DU?$char_traits@D@std@@@std@@@std@@@std@@2PEBVfacet@locale@2@EB"(%rip), %r14
	cmpq	$0, "?id@?$num_put@DV?$ostreambuf_iterator@DU?$char_traits@D@std@@@std@@@std@@2V0locale@2@A"(%rip)
	jne	.LBB45_4
# %bb.1:
	leaq	-96(%rbp), %rcx
	xorl	%edx, %edx
	callq	"??0_Lockit@std@@QEAA@H@Z"
	cmpq	$0, "?id@?$num_put@DV?$ostreambuf_iterator@DU?$char_traits@D@std@@@std@@@std@@2V0locale@2@A"(%rip)
	jne	.LBB45_3
# %bb.2:
	movslq	"?_Id_cnt@id@locale@std@@0HA"(%rip), %rax
	incq	%rax
	movl	%eax, "?_Id_cnt@id@locale@std@@0HA"(%rip)
	movq	%rax, "?id@?$num_put@DV?$ostreambuf_iterator@DU?$char_traits@D@std@@@std@@@std@@2V0locale@2@A"(%rip)
.LBB45_3:
	leaq	-96(%rbp), %rcx
	callq	"??1_Lockit@std@@QEAA@XZ"
.LBB45_4:
	movq	"?id@?$num_put@DV?$ostreambuf_iterator@DU?$char_traits@D@std@@@std@@@std@@2V0locale@2@A"(%rip), %rbx
	movq	8(%rsi), %rax
	cmpq	%rbx, 24(%rax)
	jbe	.LBB45_5
# %bb.6:
	movq	16(%rax), %rcx
	movq	(%rcx,%rbx,8), %rdi
	testq	%rdi, %rdi
	jne	.LBB45_13
	jmp	.LBB45_8
.LBB45_5:
	xorl	%edi, %edi
	testq	%rdi, %rdi
	jne	.LBB45_13
.LBB45_8:
	cmpb	$0, 36(%rax)
	je	.LBB45_13
# %bb.9:
.Ltmp176:
	callq	"?_Getgloballocale@locale@std@@CAPEAV_Locimp@12@XZ"
.Ltmp177:
# %bb.10:
	cmpq	%rbx, 24(%rax)
	jbe	.LBB45_11
# %bb.12:
	movq	16(%rax), %rax
	movq	(%rax,%rbx,8), %rdi
.LBB45_13:
	testq	%rdi, %rdi
	jne	.LBB45_22
.LBB45_14:
	movq	%r14, %rdi
	testq	%r14, %r14
	jne	.LBB45_22
# %bb.15:
.Ltmp178:
	movl	$16, %ecx
	callq	"??2@YAPEAX_K@Z"
.Ltmp179:
# %bb.16:
	movq	8(%rsi), %rdx
	testq	%rdx, %rdx
	movq	%rax, 8(%rbp)                   # 8-byte Spill
	je	.LBB45_17
# %bb.18:
	movq	40(%rdx), %rax
	addq	$48, %rdx
	testq	%rax, %rax
	cmovneq	%rax, %rdx
	jmp	.LBB45_19
.LBB45_11:
	xorl	%edi, %edi
	testq	%rdi, %rdi
	jne	.LBB45_22
	jmp	.LBB45_14
.LBB45_17:
	leaq	"??_C@_00CNPNBAHC@?$AA@"(%rip), %rdx
.LBB45_19:
.Ltmp180:
	leaq	-96(%rbp), %rcx
	callq	"??0_Locinfo@std@@QEAA@PEBD@Z"
.Ltmp181:
# %bb.20:
	movq	8(%rbp), %rsi                   # 8-byte Reload
	movl	$0, 8(%rsi)
	leaq	"??_7?$num_put@DV?$ostreambuf_iterator@DU?$char_traits@D@std@@@std@@@std@@6B@"(%rip), %rax
	movq	%rax, (%rsi)
	leaq	-96(%rbp), %rcx
	callq	"??1_Locinfo@std@@QEAA@XZ"
.Ltmp182:
	movq	%rsi, %rcx
	callq	"?_Facet_Register@std@@YAXPEAV_Facet_base@1@@Z"
.Ltmp183:
# %bb.21:
	movq	8(%rbp), %rdi                   # 8-byte Reload
	movq	(%rdi), %rax
	movq	%rdi, %rcx
	callq	*8(%rax)
	movq	%rdi, "?_Psave@?$_Facetptr@V?$num_put@DV?$ostreambuf_iterator@DU?$char_traits@D@std@@@std@@@std@@@std@@2PEBVfacet@locale@2@EB"(%rip)
.LBB45_22:
	leaq	16(%rbp), %rcx
	callq	"??1_Lockit@std@@QEAA@XZ"
	movq	%rdi, %rax
	addq	$160, %rsp
	popq	%rbx
	popq	%rdi
	popq	%rsi
	popq	%r14
	popq	%rbp
	retq
	.seh_handlerdata
	.long	("$cppxdata$??$use_facet@V?$num_put@DV?$ostreambuf_iterator@DU?$char_traits@D@std@@@std@@@std@@@std@@YAAEBV?$num_put@DV?$ostreambuf_iterator@DU?$char_traits@D@std@@@std@@@0@AEBVlocale@0@@Z")@IMGREL
	.section	.text,"xr",discard,"??$use_facet@V?$num_put@DV?$ostreambuf_iterator@DU?$char_traits@D@std@@@std@@@std@@@std@@YAAEBV?$num_put@DV?$ostreambuf_iterator@DU?$char_traits@D@std@@@std@@@0@AEBVlocale@0@@Z"
	.seh_endproc
	.def	"?dtor$23@?0???$use_facet@V?$num_put@DV?$ostreambuf_iterator@DU?$char_traits@D@std@@@std@@@std@@@std@@YAAEBV?$num_put@DV?$ostreambuf_iterator@DU?$char_traits@D@std@@@std@@@0@AEBVlocale@0@@Z@4HA";
	.scl	3;
	.type	32;
	.endef
	.p2align	4, 0x90
"?dtor$23@?0???$use_facet@V?$num_put@DV?$ostreambuf_iterator@DU?$char_traits@D@std@@@std@@@std@@@std@@YAAEBV?$num_put@DV?$ostreambuf_iterator@DU?$char_traits@D@std@@@std@@@0@AEBVlocale@0@@Z@4HA":
.seh_proc "?dtor$23@?0???$use_facet@V?$num_put@DV?$ostreambuf_iterator@DU?$char_traits@D@std@@@std@@@std@@@std@@YAAEBV?$num_put@DV?$ostreambuf_iterator@DU?$char_traits@D@std@@@std@@@0@AEBVlocale@0@@Z@4HA"
.LBB45_23:
	movq	%rdx, 16(%rsp)
	pushq	%rbp
	.seh_pushreg %rbp
	pushq	%r14
	.seh_pushreg %r14
	pushq	%rsi
	.seh_pushreg %rsi
	pushq	%rdi
	.seh_pushreg %rdi
	pushq	%rbx
	.seh_pushreg %rbx
	subq	$32, %rsp
	.seh_stackalloc 32
	leaq	128(%rdx), %rbp
	.seh_endprologue
	leaq	16(%rbp), %rcx
	callq	"??1_Lockit@std@@QEAA@XZ"
	nop
	addq	$32, %rsp
	popq	%rbx
	popq	%rdi
	popq	%rsi
	popq	%r14
	popq	%rbp
	retq                                    # CLEANUPRET
	.seh_handlerdata
	.section	.text,"xr",discard,"??$use_facet@V?$num_put@DV?$ostreambuf_iterator@DU?$char_traits@D@std@@@std@@@std@@@std@@YAAEBV?$num_put@DV?$ostreambuf_iterator@DU?$char_traits@D@std@@@std@@@0@AEBVlocale@0@@Z"
	.seh_endproc
	.def	"?dtor$24@?0???$use_facet@V?$num_put@DV?$ostreambuf_iterator@DU?$char_traits@D@std@@@std@@@std@@@std@@YAAEBV?$num_put@DV?$ostreambuf_iterator@DU?$char_traits@D@std@@@std@@@0@AEBVlocale@0@@Z@4HA";
	.scl	3;
	.type	32;
	.endef
	.p2align	4, 0x90
"?dtor$24@?0???$use_facet@V?$num_put@DV?$ostreambuf_iterator@DU?$char_traits@D@std@@@std@@@std@@@std@@YAAEBV?$num_put@DV?$ostreambuf_iterator@DU?$char_traits@D@std@@@std@@@0@AEBVlocale@0@@Z@4HA":
.seh_proc "?dtor$24@?0???$use_facet@V?$num_put@DV?$ostreambuf_iterator@DU?$char_traits@D@std@@@std@@@std@@@std@@YAAEBV?$num_put@DV?$ostreambuf_iterator@DU?$char_traits@D@std@@@std@@@0@AEBVlocale@0@@Z@4HA"
.LBB45_24:
	movq	%rdx, 16(%rsp)
	pushq	%rbp
	.seh_pushreg %rbp
	pushq	%r14
	.seh_pushreg %r14
	pushq	%rsi
	.seh_pushreg %rsi
	pushq	%rdi
	.seh_pushreg %rdi
	pushq	%rbx
	.seh_pushreg %rbx
	subq	$32, %rsp
	.seh_stackalloc 32
	leaq	128(%rdx), %rbp
	.seh_endprologue
	movq	8(%rbp), %rcx                   # 8-byte Reload
	callq	"??3@YAXPEAX@Z"
	nop
	addq	$32, %rsp
	popq	%rbx
	popq	%rdi
	popq	%rsi
	popq	%r14
	popq	%rbp
	retq                                    # CLEANUPRET
	.seh_handlerdata
	.section	.text,"xr",discard,"??$use_facet@V?$num_put@DV?$ostreambuf_iterator@DU?$char_traits@D@std@@@std@@@std@@@std@@YAAEBV?$num_put@DV?$ostreambuf_iterator@DU?$char_traits@D@std@@@std@@@0@AEBVlocale@0@@Z"
	.seh_endproc
	.def	"?dtor$25@?0???$use_facet@V?$num_put@DV?$ostreambuf_iterator@DU?$char_traits@D@std@@@std@@@std@@@std@@YAAEBV?$num_put@DV?$ostreambuf_iterator@DU?$char_traits@D@std@@@std@@@0@AEBVlocale@0@@Z@4HA";
	.scl	3;
	.type	32;
	.endef
	.p2align	4, 0x90
"?dtor$25@?0???$use_facet@V?$num_put@DV?$ostreambuf_iterator@DU?$char_traits@D@std@@@std@@@std@@@std@@YAAEBV?$num_put@DV?$ostreambuf_iterator@DU?$char_traits@D@std@@@std@@@0@AEBVlocale@0@@Z@4HA":
.seh_proc "?dtor$25@?0???$use_facet@V?$num_put@DV?$ostreambuf_iterator@DU?$char_traits@D@std@@@std@@@std@@@std@@YAAEBV?$num_put@DV?$ostreambuf_iterator@DU?$char_traits@D@std@@@std@@@0@AEBVlocale@0@@Z@4HA"
.LBB45_25:
	movq	%rdx, 16(%rsp)
	pushq	%rbp
	.seh_pushreg %rbp
	pushq	%r14
	.seh_pushreg %r14
	pushq	%rsi
	.seh_pushreg %rsi
	pushq	%rdi
	.seh_pushreg %rdi
	pushq	%rbx
	.seh_pushreg %rbx
	subq	$32, %rsp
	.seh_stackalloc 32
	leaq	128(%rdx), %rbp
	.seh_endprologue
	movq	8(%rbp), %rcx                   # 8-byte Reload
	movq	(%rcx), %rax
	movl	$1, %edx
	callq	*(%rax)
	nop
	addq	$32, %rsp
	popq	%rbx
	popq	%rdi
	popq	%rsi
	popq	%r14
	popq	%rbp
	retq                                    # CLEANUPRET
.Lfunc_end32:
	.seh_handlerdata
	.section	.text,"xr",discard,"??$use_facet@V?$num_put@DV?$ostreambuf_iterator@DU?$char_traits@D@std@@@std@@@std@@@std@@YAAEBV?$num_put@DV?$ostreambuf_iterator@DU?$char_traits@D@std@@@std@@@0@AEBVlocale@0@@Z"
	.seh_endproc
	.section	.xdata,"dr",associative,"??$use_facet@V?$num_put@DV?$ostreambuf_iterator@DU?$char_traits@D@std@@@std@@@std@@@std@@YAAEBV?$num_put@DV?$ostreambuf_iterator@DU?$char_traits@D@std@@@std@@@0@AEBVlocale@0@@Z"
	.p2align	2
"$cppxdata$??$use_facet@V?$num_put@DV?$ostreambuf_iterator@DU?$char_traits@D@std@@@std@@@std@@@std@@YAAEBV?$num_put@DV?$ostreambuf_iterator@DU?$char_traits@D@std@@@std@@@0@AEBVlocale@0@@Z":
	.long	429065506                       # MagicNumber
	.long	3                               # MaxState
	.long	("$stateUnwindMap$??$use_facet@V?$num_put@DV?$ostreambuf_iterator@DU?$char_traits@D@std@@@std@@@std@@@std@@YAAEBV?$num_put@DV?$ostreambuf_iterator@DU?$char_traits@D@std@@@std@@@0@AEBVlocale@0@@Z")@IMGREL # UnwindMap
	.long	0                               # NumTryBlocks
	.long	0                               # TryBlockMap
	.long	5                               # IPMapEntries
	.long	("$ip2state$??$use_facet@V?$num_put@DV?$ostreambuf_iterator@DU?$char_traits@D@std@@@std@@@std@@@std@@YAAEBV?$num_put@DV?$ostreambuf_iterator@DU?$char_traits@D@std@@@std@@@0@AEBVlocale@0@@Z")@IMGREL # IPToStateXData
	.long	152                             # UnwindHelp
	.long	0                               # ESTypeList
	.long	1                               # EHFlags
"$stateUnwindMap$??$use_facet@V?$num_put@DV?$ostreambuf_iterator@DU?$char_traits@D@std@@@std@@@std@@@std@@YAAEBV?$num_put@DV?$ostreambuf_iterator@DU?$char_traits@D@std@@@std@@@0@AEBVlocale@0@@Z":
	.long	-1                              # ToState
	.long	"?dtor$23@?0???$use_facet@V?$num_put@DV?$ostreambuf_iterator@DU?$char_traits@D@std@@@std@@@std@@@std@@YAAEBV?$num_put@DV?$ostreambuf_iterator@DU?$char_traits@D@std@@@std@@@0@AEBVlocale@0@@Z@4HA"@IMGREL # Action
	.long	0                               # ToState
	.long	"?dtor$24@?0???$use_facet@V?$num_put@DV?$ostreambuf_iterator@DU?$char_traits@D@std@@@std@@@std@@@std@@YAAEBV?$num_put@DV?$ostreambuf_iterator@DU?$char_traits@D@std@@@std@@@0@AEBVlocale@0@@Z@4HA"@IMGREL # Action
	.long	0                               # ToState
	.long	"?dtor$25@?0???$use_facet@V?$num_put@DV?$ostreambuf_iterator@DU?$char_traits@D@std@@@std@@@std@@@std@@YAAEBV?$num_put@DV?$ostreambuf_iterator@DU?$char_traits@D@std@@@std@@@0@AEBVlocale@0@@Z@4HA"@IMGREL # Action
"$ip2state$??$use_facet@V?$num_put@DV?$ostreambuf_iterator@DU?$char_traits@D@std@@@std@@@std@@@std@@YAAEBV?$num_put@DV?$ostreambuf_iterator@DU?$char_traits@D@std@@@std@@@0@AEBVlocale@0@@Z":
	.long	.Lfunc_begin32@IMGREL           # IP
	.long	-1                              # ToState
	.long	.Ltmp176@IMGREL+1               # IP
	.long	0                               # ToState
	.long	.Ltmp180@IMGREL+1               # IP
	.long	1                               # ToState
	.long	.Ltmp182@IMGREL+1               # IP
	.long	2                               # ToState
	.long	.Ltmp183@IMGREL+1               # IP
	.long	-1                              # ToState
	.section	.text,"xr",discard,"??$use_facet@V?$num_put@DV?$ostreambuf_iterator@DU?$char_traits@D@std@@@std@@@std@@@std@@YAAEBV?$num_put@DV?$ostreambuf_iterator@DU?$char_traits@D@std@@@std@@@0@AEBVlocale@0@@Z"
                                        # -- End function
	.def	"?_Throw_bad_cast@std@@YAXXZ";
	.scl	2;
	.type	32;
	.endef
	.section	.text,"xr",discard,"?_Throw_bad_cast@std@@YAXXZ"
	.globl	"?_Throw_bad_cast@std@@YAXXZ"   # -- Begin function ?_Throw_bad_cast@std@@YAXXZ
	.p2align	4, 0x90
"?_Throw_bad_cast@std@@YAXXZ":          # @"?_Throw_bad_cast@std@@YAXXZ"
.seh_proc "?_Throw_bad_cast@std@@YAXXZ"
# %bb.0:
	subq	$56, %rsp
	.seh_stackalloc 56
	.seh_endprologue
	xorps	%xmm0, %xmm0
	movups	%xmm0, 40(%rsp)
	leaq	"??_C@_08EPJLHIJG@bad?5cast?$AA@"(%rip), %rax
	movq	%rax, 40(%rsp)
	leaq	"??_7bad_cast@std@@6B@"(%rip), %rax
	movq	%rax, 32(%rsp)
	leaq	"_TI2?AVbad_cast@std@@"(%rip), %rdx
	leaq	32(%rsp), %rcx
	callq	_CxxThrowException
	int3
	.seh_endproc
                                        # -- End function
	.def	"??0_Locinfo@std@@QEAA@PEBD@Z";
	.scl	2;
	.type	32;
	.endef
	.section	.text,"xr",discard,"??0_Locinfo@std@@QEAA@PEBD@Z"
	.globl	"??0_Locinfo@std@@QEAA@PEBD@Z"  # -- Begin function ??0_Locinfo@std@@QEAA@PEBD@Z
	.p2align	4, 0x90
"??0_Locinfo@std@@QEAA@PEBD@Z":         # @"??0_Locinfo@std@@QEAA@PEBD@Z"
.Lfunc_begin33:
.seh_proc "??0_Locinfo@std@@QEAA@PEBD@Z"
	.seh_handler __CxxFrameHandler3, @unwind, @except
# %bb.0:
	pushq	%rbp
	.seh_pushreg %rbp
	pushq	%rsi
	.seh_pushreg %rsi
	pushq	%rdi
	.seh_pushreg %rdi
	subq	$48, %rsp
	.seh_stackalloc 48
	leaq	48(%rsp), %rbp
	.seh_setframe %rbp, 48
	.seh_endprologue
	movq	$-2, -8(%rbp)
	movq	%rdx, %rsi
	movq	%rcx, %rdi
	xorl	%edx, %edx
	callq	"??0_Lockit@std@@QEAA@H@Z"
	movq	$0, 8(%rdi)
	movb	$0, 16(%rdi)
	movq	$0, 24(%rdi)
	movb	$0, 32(%rdi)
	movq	$0, 40(%rdi)
	movw	$0, 48(%rdi)
	movq	$0, 56(%rdi)
	movw	$0, 64(%rdi)
	movq	$0, 72(%rdi)
	movb	$0, 80(%rdi)
	movq	$0, 88(%rdi)
	movb	$0, 96(%rdi)
	testq	%rsi, %rsi
	movq	%rdi, -16(%rbp)                 # 8-byte Spill
	je	.LBB47_3
# %bb.1:
.Ltmp184:
	movq	%rdi, %rcx
	movq	%rsi, %rdx
	callq	"?_Locinfo_ctor@_Locinfo@std@@SAXPEAV12@PEBD@Z"
.Ltmp185:
# %bb.2:
	movq	-16(%rbp), %rax                 # 8-byte Reload
	addq	$48, %rsp
	popq	%rdi
	popq	%rsi
	popq	%rbp
	retq
.LBB47_3:
.Ltmp186:
	leaq	"??_C@_0BA@ELKIONDK@bad?5locale?5name?$AA@"(%rip), %rcx
	callq	"?_Xruntime_error@std@@YAXPEBD@Z"
.Ltmp187:
# %bb.4:
	int3
	.seh_handlerdata
	.long	("$cppxdata$??0_Locinfo@std@@QEAA@PEBD@Z")@IMGREL
	.section	.text,"xr",discard,"??0_Locinfo@std@@QEAA@PEBD@Z"
	.seh_endproc
	.def	"?dtor$5@?0???0_Locinfo@std@@QEAA@PEBD@Z@4HA";
	.scl	3;
	.type	32;
	.endef
	.p2align	4, 0x90
"?dtor$5@?0???0_Locinfo@std@@QEAA@PEBD@Z@4HA":
.seh_proc "?dtor$5@?0???0_Locinfo@std@@QEAA@PEBD@Z@4HA"
.LBB47_5:
	movq	%rdx, 16(%rsp)
	pushq	%rbp
	.seh_pushreg %rbp
	pushq	%rsi
	.seh_pushreg %rsi
	pushq	%rdi
	.seh_pushreg %rdi
	subq	$32, %rsp
	.seh_stackalloc 32
	leaq	48(%rdx), %rbp
	.seh_endprologue
	movq	-16(%rbp), %rax                 # 8-byte Reload
	movq	%rax, %rsi
	movq	88(%rax), %rcx
	testq	%rcx, %rcx
	je	.LBB47_7
# %bb.6:
	callq	free
.LBB47_7:
	movq	%rsi, %rax
	movq	$0, 88(%rsi)
	movq	72(%rsi), %rcx
	testq	%rcx, %rcx
	je	.LBB47_9
# %bb.8:
	callq	free
.LBB47_9:
	movq	%rsi, %rax
	movq	$0, 72(%rsi)
	movq	56(%rsi), %rcx
	testq	%rcx, %rcx
	je	.LBB47_11
# %bb.10:
	callq	free
.LBB47_11:
	movq	%rsi, %rax
	movq	$0, 56(%rsi)
	movq	40(%rsi), %rcx
	testq	%rcx, %rcx
	je	.LBB47_13
# %bb.12:
	callq	free
.LBB47_13:
	movq	%rsi, %rax
	movq	$0, 40(%rsi)
	movq	24(%rsi), %rcx
	testq	%rcx, %rcx
	je	.LBB47_15
# %bb.14:
	callq	free
.LBB47_15:
	movq	%rsi, %rax
	movq	$0, 24(%rsi)
	movq	8(%rsi), %rcx
	testq	%rcx, %rcx
	je	.LBB47_17
# %bb.16:
	callq	free
.LBB47_17:
	movq	%rsi, %rcx
	movq	$0, 8(%rsi)
	callq	"??1_Lockit@std@@QEAA@XZ"
	nop
	addq	$32, %rsp
	popq	%rdi
	popq	%rsi
	popq	%rbp
	retq                                    # CLEANUPRET
.Lfunc_end33:
	.seh_handlerdata
	.section	.text,"xr",discard,"??0_Locinfo@std@@QEAA@PEBD@Z"
	.seh_endproc
	.section	.xdata,"dr",associative,"??0_Locinfo@std@@QEAA@PEBD@Z"
	.p2align	2
"$cppxdata$??0_Locinfo@std@@QEAA@PEBD@Z":
	.long	429065506                       # MagicNumber
	.long	1                               # MaxState
	.long	("$stateUnwindMap$??0_Locinfo@std@@QEAA@PEBD@Z")@IMGREL # UnwindMap
	.long	0                               # NumTryBlocks
	.long	0                               # TryBlockMap
	.long	3                               # IPMapEntries
	.long	("$ip2state$??0_Locinfo@std@@QEAA@PEBD@Z")@IMGREL # IPToStateXData
	.long	40                              # UnwindHelp
	.long	0                               # ESTypeList
	.long	1                               # EHFlags
"$stateUnwindMap$??0_Locinfo@std@@QEAA@PEBD@Z":
	.long	-1                              # ToState
	.long	"?dtor$5@?0???0_Locinfo@std@@QEAA@PEBD@Z@4HA"@IMGREL # Action
"$ip2state$??0_Locinfo@std@@QEAA@PEBD@Z":
	.long	.Lfunc_begin33@IMGREL           # IP
	.long	-1                              # ToState
	.long	.Ltmp184@IMGREL+1               # IP
	.long	0                               # ToState
	.long	.Ltmp187@IMGREL+1               # IP
	.long	-1                              # ToState
	.section	.text,"xr",discard,"??0_Locinfo@std@@QEAA@PEBD@Z"
                                        # -- End function
	.def	"??1_Locinfo@std@@QEAA@XZ";
	.scl	2;
	.type	32;
	.endef
	.section	.text,"xr",discard,"??1_Locinfo@std@@QEAA@XZ"
	.globl	"??1_Locinfo@std@@QEAA@XZ"      # -- Begin function ??1_Locinfo@std@@QEAA@XZ
	.p2align	4, 0x90
"??1_Locinfo@std@@QEAA@XZ":             # @"??1_Locinfo@std@@QEAA@XZ"
.Lfunc_begin34:
.seh_proc "??1_Locinfo@std@@QEAA@XZ"
	.seh_handler __CxxFrameHandler3, @unwind, @except
# %bb.0:
	pushq	%rbp
	.seh_pushreg %rbp
	pushq	%rsi
	.seh_pushreg %rsi
	subq	$40, %rsp
	.seh_stackalloc 40
	leaq	32(%rsp), %rbp
	.seh_setframe %rbp, 32
	.seh_endprologue
	movq	$-2, (%rbp)
	movq	%rcx, %rsi
.Ltmp188:
	callq	"?_Locinfo_dtor@_Locinfo@std@@SAXPEAV12@@Z"
.Ltmp189:
# %bb.1:
	movq	88(%rsi), %rcx
	testq	%rcx, %rcx
	je	.LBB48_3
# %bb.2:
	callq	free
.LBB48_3:
	movq	$0, 88(%rsi)
	movq	72(%rsi), %rcx
	testq	%rcx, %rcx
	je	.LBB48_5
# %bb.4:
	callq	free
.LBB48_5:
	movq	$0, 72(%rsi)
	movq	56(%rsi), %rcx
	testq	%rcx, %rcx
	je	.LBB48_7
# %bb.6:
	callq	free
.LBB48_7:
	movq	$0, 56(%rsi)
	movq	40(%rsi), %rcx
	testq	%rcx, %rcx
	je	.LBB48_9
# %bb.8:
	callq	free
.LBB48_9:
	movq	$0, 40(%rsi)
	movq	24(%rsi), %rcx
	testq	%rcx, %rcx
	je	.LBB48_11
# %bb.10:
	callq	free
.LBB48_11:
	movq	$0, 24(%rsi)
	movq	8(%rsi), %rcx
	testq	%rcx, %rcx
	je	.LBB48_13
# %bb.12:
	callq	free
.LBB48_13:
	movq	$0, 8(%rsi)
	movq	%rsi, %rcx
	addq	$40, %rsp
	popq	%rsi
	popq	%rbp
	jmp	"??1_Lockit@std@@QEAA@XZ"       # TAILCALL
	.seh_handlerdata
	.long	("$cppxdata$??1_Locinfo@std@@QEAA@XZ")@IMGREL
	.section	.text,"xr",discard,"??1_Locinfo@std@@QEAA@XZ"
	.seh_endproc
	.def	"?dtor$14@?0???1_Locinfo@std@@QEAA@XZ@4HA";
	.scl	3;
	.type	32;
	.endef
	.p2align	4, 0x90
"?dtor$14@?0???1_Locinfo@std@@QEAA@XZ@4HA":
.seh_proc "?dtor$14@?0???1_Locinfo@std@@QEAA@XZ@4HA"
.LBB48_14:
	movq	%rdx, 16(%rsp)
	pushq	%rbp
	.seh_pushreg %rbp
	pushq	%rsi
	.seh_pushreg %rsi
	subq	$40, %rsp
	.seh_stackalloc 40
	leaq	32(%rdx), %rbp
	.seh_endprologue
	callq	__std_terminate
	int3
.Lfunc_end34:
	.seh_handlerdata
	.section	.text,"xr",discard,"??1_Locinfo@std@@QEAA@XZ"
	.seh_endproc
	.section	.xdata,"dr",associative,"??1_Locinfo@std@@QEAA@XZ"
	.p2align	2
"$cppxdata$??1_Locinfo@std@@QEAA@XZ":
	.long	429065506                       # MagicNumber
	.long	1                               # MaxState
	.long	("$stateUnwindMap$??1_Locinfo@std@@QEAA@XZ")@IMGREL # UnwindMap
	.long	0                               # NumTryBlocks
	.long	0                               # TryBlockMap
	.long	3                               # IPMapEntries
	.long	("$ip2state$??1_Locinfo@std@@QEAA@XZ")@IMGREL # IPToStateXData
	.long	32                              # UnwindHelp
	.long	0                               # ESTypeList
	.long	1                               # EHFlags
"$stateUnwindMap$??1_Locinfo@std@@QEAA@XZ":
	.long	-1                              # ToState
	.long	"?dtor$14@?0???1_Locinfo@std@@QEAA@XZ@4HA"@IMGREL # Action
"$ip2state$??1_Locinfo@std@@QEAA@XZ":
	.long	.Lfunc_begin34@IMGREL           # IP
	.long	-1                              # ToState
	.long	.Ltmp188@IMGREL+1               # IP
	.long	0                               # ToState
	.long	.Ltmp189@IMGREL+1               # IP
	.long	-1                              # ToState
	.section	.text,"xr",discard,"??1_Locinfo@std@@QEAA@XZ"
                                        # -- End function
	.def	"??_G?$num_put@DV?$ostreambuf_iterator@DU?$char_traits@D@std@@@std@@@std@@MEAAPEAXI@Z";
	.scl	2;
	.type	32;
	.endef
	.section	.text,"xr",discard,"??_G?$num_put@DV?$ostreambuf_iterator@DU?$char_traits@D@std@@@std@@@std@@MEAAPEAXI@Z"
	.globl	"??_G?$num_put@DV?$ostreambuf_iterator@DU?$char_traits@D@std@@@std@@@std@@MEAAPEAXI@Z" # -- Begin function ??_G?$num_put@DV?$ostreambuf_iterator@DU?$char_traits@D@std@@@std@@@std@@MEAAPEAXI@Z
	.p2align	4, 0x90
"??_G?$num_put@DV?$ostreambuf_iterator@DU?$char_traits@D@std@@@std@@@std@@MEAAPEAXI@Z": # @"??_G?$num_put@DV?$ostreambuf_iterator@DU?$char_traits@D@std@@@std@@@std@@MEAAPEAXI@Z"
.seh_proc "??_G?$num_put@DV?$ostreambuf_iterator@DU?$char_traits@D@std@@@std@@@std@@MEAAPEAXI@Z"
# %bb.0:
	pushq	%rsi
	.seh_pushreg %rsi
	subq	$32, %rsp
	.seh_stackalloc 32
	.seh_endprologue
	movq	%rcx, %rsi
	testl	%edx, %edx
	je	.LBB49_2
# %bb.1:
	movq	%rsi, %rcx
	callq	"??3@YAXPEAX@Z"
.LBB49_2:
	movq	%rsi, %rax
	addq	$32, %rsp
	popq	%rsi
	retq
	.seh_endproc
                                        # -- End function
	.def	"?_Incref@facet@locale@std@@UEAAXXZ";
	.scl	2;
	.type	32;
	.endef
	.section	.text,"xr",discard,"?_Incref@facet@locale@std@@UEAAXXZ"
	.globl	"?_Incref@facet@locale@std@@UEAAXXZ" # -- Begin function ?_Incref@facet@locale@std@@UEAAXXZ
	.p2align	4, 0x90
"?_Incref@facet@locale@std@@UEAAXXZ":   # @"?_Incref@facet@locale@std@@UEAAXXZ"
# %bb.0:
	lock		incl	8(%rcx)
	retq
                                        # -- End function
	.def	"?_Decref@facet@locale@std@@UEAAPEAV_Facet_base@3@XZ";
	.scl	2;
	.type	32;
	.endef
	.section	.text,"xr",discard,"?_Decref@facet@locale@std@@UEAAPEAV_Facet_base@3@XZ"
	.globl	"?_Decref@facet@locale@std@@UEAAPEAV_Facet_base@3@XZ" # -- Begin function ?_Decref@facet@locale@std@@UEAAPEAV_Facet_base@3@XZ
	.p2align	4, 0x90
"?_Decref@facet@locale@std@@UEAAPEAV_Facet_base@3@XZ": # @"?_Decref@facet@locale@std@@UEAAPEAV_Facet_base@3@XZ"
# %bb.0:
	xorl	%eax, %eax
	lock		decl	8(%rcx)
	cmoveq	%rcx, %rax
	retq
                                        # -- End function
	.def	"?do_put@?$num_put@DV?$ostreambuf_iterator@DU?$char_traits@D@std@@@std@@@std@@MEBA?AV?$ostreambuf_iterator@DU?$char_traits@D@std@@@2@V32@AEAVios_base@2@DPEBX@Z";
	.scl	2;
	.type	32;
	.endef
	.section	.text,"xr",discard,"?do_put@?$num_put@DV?$ostreambuf_iterator@DU?$char_traits@D@std@@@std@@@std@@MEBA?AV?$ostreambuf_iterator@DU?$char_traits@D@std@@@2@V32@AEAVios_base@2@DPEBX@Z"
	.globl	"?do_put@?$num_put@DV?$ostreambuf_iterator@DU?$char_traits@D@std@@@std@@@std@@MEBA?AV?$ostreambuf_iterator@DU?$char_traits@D@std@@@2@V32@AEAVios_base@2@DPEBX@Z" # -- Begin function ?do_put@?$num_put@DV?$ostreambuf_iterator@DU?$char_traits@D@std@@@std@@@std@@MEBA?AV?$ostreambuf_iterator@DU?$char_traits@D@std@@@2@V32@AEAVios_base@2@DPEBX@Z
	.p2align	4, 0x90
"?do_put@?$num_put@DV?$ostreambuf_iterator@DU?$char_traits@D@std@@@std@@@std@@MEBA?AV?$ostreambuf_iterator@DU?$char_traits@D@std@@@2@V32@AEAVios_base@2@DPEBX@Z": # @"?do_put@?$num_put@DV?$ostreambuf_iterator@DU?$char_traits@D@std@@@std@@@std@@MEBA?AV?$ostreambuf_iterator@DU?$char_traits@D@std@@@2@V32@AEAVios_base@2@DPEBX@Z"
.seh_proc "?do_put@?$num_put@DV?$ostreambuf_iterator@DU?$char_traits@D@std@@@std@@@std@@MEBA?AV?$ostreambuf_iterator@DU?$char_traits@D@std@@@2@V32@AEAVios_base@2@DPEBX@Z"
# %bb.0:
	pushq	%r15
	.seh_pushreg %r15
	pushq	%r14
	.seh_pushreg %r14
	pushq	%rsi
	.seh_pushreg %rsi
	pushq	%rdi
	.seh_pushreg %rdi
	pushq	%rbp
	.seh_pushreg %rbp
	pushq	%rbx
	.seh_pushreg %rbx
	subq	$152, %rsp
	.seh_stackalloc 152
	.seh_endprologue
	movq	%r9, %r14
	movq	%r8, %rbx
	movq	%rdx, %rsi
	movq	%rcx, %rdi
	movzbl	240(%rsp), %ebp
	movq	248(%rsp), %r9
	leaq	"??_C@_02BBAHNLBA@?$CFp?$AA@"(%rip), %r8
	leaq	80(%rsp), %r15
	movl	$64, %edx
	movq	%r15, %rcx
	callq	sprintf_s
	cltq
	movups	(%rbx), %xmm0
	movaps	%xmm0, 64(%rsp)
	movq	%rax, 48(%rsp)
	movq	%r15, 40(%rsp)
	movb	%bpl, 32(%rsp)
	leaq	64(%rsp), %r8
	movq	%rdi, %rcx
	movq	%rsi, %rdx
	movq	%r14, %r9
	callq	"?_Iput@?$num_put@DV?$ostreambuf_iterator@DU?$char_traits@D@std@@@std@@@std@@AEBA?AV?$ostreambuf_iterator@DU?$char_traits@D@std@@@2@V32@AEAVios_base@2@DPEAD_K@Z"
	movq	%rsi, %rax
	addq	$152, %rsp
	popq	%rbx
	popq	%rbp
	popq	%rdi
	popq	%rsi
	popq	%r14
	popq	%r15
	retq
	.seh_endproc
                                        # -- End function
	.def	"?do_put@?$num_put@DV?$ostreambuf_iterator@DU?$char_traits@D@std@@@std@@@std@@MEBA?AV?$ostreambuf_iterator@DU?$char_traits@D@std@@@2@V32@AEAVios_base@2@DO@Z";
	.scl	2;
	.type	32;
	.endef
	.globl	__xmm@7fffffffffffffff7fffffffffffffff # -- Begin function ?do_put@?$num_put@DV?$ostreambuf_iterator@DU?$char_traits@D@std@@@std@@@std@@MEBA?AV?$ostreambuf_iterator@DU?$char_traits@D@std@@@2@V32@AEAVios_base@2@DO@Z
	.section	.rdata,"dr",discard,__xmm@7fffffffffffffff7fffffffffffffff
	.p2align	4
__xmm@7fffffffffffffff7fffffffffffffff:
	.quad	0x7fffffffffffffff              # double NaN
	.quad	0x7fffffffffffffff              # double NaN
	.globl	__real@4202a05f20000000
	.section	.rdata,"dr",discard,__real@4202a05f20000000
	.p2align	3
__real@4202a05f20000000:
	.quad	0x4202a05f20000000              # double 1.0E+10
	.section	.text,"xr",discard,"?do_put@?$num_put@DV?$ostreambuf_iterator@DU?$char_traits@D@std@@@std@@@std@@MEBA?AV?$ostreambuf_iterator@DU?$char_traits@D@std@@@2@V32@AEAVios_base@2@DO@Z"
	.globl	"?do_put@?$num_put@DV?$ostreambuf_iterator@DU?$char_traits@D@std@@@std@@@std@@MEBA?AV?$ostreambuf_iterator@DU?$char_traits@D@std@@@2@V32@AEAVios_base@2@DO@Z"
	.p2align	4, 0x90
"?do_put@?$num_put@DV?$ostreambuf_iterator@DU?$char_traits@D@std@@@std@@@std@@MEBA?AV?$ostreambuf_iterator@DU?$char_traits@D@std@@@2@V32@AEAVios_base@2@DO@Z": # @"?do_put@?$num_put@DV?$ostreambuf_iterator@DU?$char_traits@D@std@@@std@@@std@@MEBA?AV?$ostreambuf_iterator@DU?$char_traits@D@std@@@2@V32@AEAVios_base@2@DO@Z"
.Lfunc_begin35:
.seh_proc "?do_put@?$num_put@DV?$ostreambuf_iterator@DU?$char_traits@D@std@@@std@@@std@@MEBA?AV?$ostreambuf_iterator@DU?$char_traits@D@std@@@2@V32@AEAVios_base@2@DO@Z"
	.seh_handler __CxxFrameHandler3, @unwind, @except
# %bb.0:
	pushq	%rbp
	.seh_pushreg %rbp
	pushq	%r15
	.seh_pushreg %r15
	pushq	%r14
	.seh_pushreg %r14
	pushq	%r13
	.seh_pushreg %r13
	pushq	%r12
	.seh_pushreg %r12
	pushq	%rsi
	.seh_pushreg %rsi
	pushq	%rdi
	.seh_pushreg %rdi
	pushq	%rbx
	.seh_pushreg %rbx
	subq	$168, %rsp
	.seh_stackalloc 168
	leaq	128(%rsp), %rbp
	.seh_setframe %rbp, 128
	movaps	%xmm6, 16(%rbp)                 # 16-byte Spill
	.seh_savexmm %xmm6, 144
	.seh_endprologue
	movq	$-2, 8(%rbp)
	movq	%r9, %rdi
	movq	%r8, %r15
	movq	%rdx, %r12
	movq	%rcx, %r14
	xorpd	%xmm0, %xmm0
	movapd	%xmm0, -16(%rbp)
	movapd	%xmm0, -32(%rbp)
	movq	$15, -8(%rbp)
	movb	$0, -32(%rbp)
	movl	$12288, %eax                    # imm = 0x3000
	andl	24(%r9), %eax
	movq	$-1, %r13
	cmpl	$12288, %eax                    # imm = 0x3000
	je	.LBB53_2
# %bb.1:
	movq	32(%rdi), %r13
.LBB53_2:
	movl	$13, %ecx
	je	.LBB53_6
# %bb.3:
	movq	%r13, %rcx
	testq	%r13, %r13
	jg	.LBB53_6
# %bb.4:
	movl	$6, %ecx
	jne	.LBB53_6
# %bb.5:
	xorl	%ecx, %ecx
	testl	%eax, %eax
	sete	%cl
.LBB53_6:
	movsd	152(%rbp), %xmm6                # xmm6 = mem[0],zero
	movslq	%ecx, %rsi
	cmpl	$8192, %eax                     # imm = 0x2000
	jne	.LBB53_9
# %bb.7:
	movapd	__xmm@7fffffffffffffff7fffffffffffffff(%rip), %xmm0 # xmm0 = [NaN,NaN]
	andpd	%xmm6, %xmm0
	ucomisd	__real@4202a05f20000000(%rip), %xmm0
	jbe	.LBB53_9
# %bb.8:
	leaq	-44(%rbp), %rdx
	movapd	%xmm6, %xmm0
	callq	frexp
	movl	-44(%rbp), %eax
	movl	%eax, %ecx
	negl	%ecx
	cmovsl	%eax, %ecx
	imull	$30103, %ecx, %eax              # imm = 0x7597
	shrl	$5, %eax
	imulq	$175921861, %rax, %rax          # imm = 0xA7C5AC5
	shrq	$39, %rax
	addq	%rax, %rsi
.LBB53_9:
	addq	$50, %rsi
	movq	-16(%rbp), %rcx
	movq	%rsi, %r8
	subq	%rcx, %r8
	jbe	.LBB53_12
# %bb.10:
	movq	-8(%rbp), %rax
	movq	%rax, %rdx
	subq	%rcx, %rdx
	cmpq	%r8, %rdx
	jae	.LBB53_14
# %bb.11:
.Ltmp190:
	movb	$0, 32(%rsp)
	leaq	-32(%rbp), %rcx
	movq	%r8, %rdx
	movq	%r8, %r9
	callq	"??$_Reallocate_grow_by@V<lambda_1>@?0??append@?$basic_string@DU?$char_traits@D@std@@V?$allocator@D@2@@std@@QEAAAEAV34@_KD@Z@_KD@?$basic_string@DU?$char_traits@D@std@@V?$allocator@D@2@@std@@AEAAAEAV01@_KV<lambda_1>@?0??append@01@QEAAAEAV01@0D@Z@_KD@Z"
.Ltmp191:
	jmp	.LBB53_20
.LBB53_12:
	cmpq	$16, -8(%rbp)
	jb	.LBB53_16
# %bb.13:
	movq	-32(%rbp), %rbx
	movq	%rsi, -16(%rbp)
	jmp	.LBB53_19
.LBB53_14:
	movq	%rsi, -16(%rbp)
	cmpq	$16, %rax
	jb	.LBB53_17
# %bb.15:
	movq	-32(%rbp), %rbx
	jmp	.LBB53_18
.LBB53_16:
	leaq	-32(%rbp), %rbx
	movq	%rsi, -16(%rbp)
	jmp	.LBB53_19
.LBB53_17:
	leaq	-32(%rbp), %rbx
.LBB53_18:
	addq	%rbx, %rcx
	xorl	%edx, %edx
	callq	memset
.LBB53_19:
	movb	$0, (%rbx,%rsi)
.LBB53_20:
	movl	24(%rdi), %ecx
	movb	$37, -40(%rbp)
	testb	$32, %cl
	jne	.LBB53_22
# %bb.21:
	leaq	-39(%rbp), %rax
	testb	$16, %cl
	jne	.LBB53_23
	jmp	.LBB53_24
.LBB53_22:
	leaq	-38(%rbp), %rax
	movb	$43, -39(%rbp)
	testb	$16, %cl
	je	.LBB53_24
.LBB53_23:
	movb	$35, (%rax)
	incq	%rax
.LBB53_24:
	movw	$10798, (%rax)                  # imm = 0x2A2E
	movb	$76, 2(%rax)
	movl	%ecx, %edx
	andl	$12288, %edx                    # imm = 0x3000
	testb	$4, %cl
	jne	.LBB53_29
# %bb.25:
	cmpl	$4096, %edx                     # imm = 0x1000
	je	.LBB53_35
# %bb.26:
	cmpl	$8192, %edx                     # imm = 0x2000
	je	.LBB53_34
# %bb.27:
	cmpl	$12288, %edx                    # imm = 0x3000
	jne	.LBB53_37
# %bb.28:
	movb	$97, %cl
	jmp	.LBB53_39
.LBB53_29:
	cmpl	$4096, %edx                     # imm = 0x1000
	je	.LBB53_36
# %bb.30:
	cmpl	$8192, %edx                     # imm = 0x2000
	je	.LBB53_34
# %bb.31:
	cmpl	$12288, %edx                    # imm = 0x3000
	jne	.LBB53_38
# %bb.32:
	movb	$65, %cl
	jmp	.LBB53_39
.LBB53_34:
	movb	$102, %cl
	jmp	.LBB53_39
.LBB53_35:
	movb	$101, %cl
	jmp	.LBB53_39
.LBB53_36:
	movb	$69, %cl
	jmp	.LBB53_39
.LBB53_37:
	movb	$103, %cl
	jmp	.LBB53_39
.LBB53_38:
	movb	$71, %cl
.LBB53_39:
	movb	%cl, 3(%rax)
	movb	$0, 4(%rax)
	movq	-16(%rbp), %rdx
	cmpq	$16, -8(%rbp)
	jb	.LBB53_41
# %bb.40:
	movq	-32(%rbp), %rcx
	jmp	.LBB53_42
.LBB53_41:
	leaq	-32(%rbp), %rcx
.LBB53_42:
.Ltmp192:
	movsd	%xmm6, 32(%rsp)
	leaq	-40(%rbp), %r8
	movl	%r13d, %r9d
	callq	sprintf_s
.Ltmp193:
# %bb.43:
	movzbl	144(%rbp), %ecx
	cltq
	cmpq	$16, -8(%rbp)
	jb	.LBB53_45
# %bb.44:
	movq	-32(%rbp), %rdx
	jmp	.LBB53_46
.LBB53_45:
	leaq	-32(%rbp), %rdx
.LBB53_46:
	movupd	(%r15), %xmm0
	movapd	%xmm0, -64(%rbp)
.Ltmp194:
	movq	%rax, 48(%rsp)
	movq	%rdx, 40(%rsp)
	movb	%cl, 32(%rsp)
	leaq	-64(%rbp), %r8
	movq	%r14, %rcx
	movq	%r12, %rdx
	movq	%rdi, %r9
	callq	"?_Fput@?$num_put@DV?$ostreambuf_iterator@DU?$char_traits@D@std@@@std@@@std@@AEBA?AV?$ostreambuf_iterator@DU?$char_traits@D@std@@@2@V32@AEAVios_base@2@DPEBD_K@Z"
.Ltmp195:
# %bb.47:
	movq	-8(%rbp), %rax
	cmpq	$16, %rax
	jb	.LBB53_52
# %bb.48:
	movq	-32(%rbp), %rcx
	leaq	1(%rax), %rdx
	cmpq	$4096, %rdx                     # imm = 0x1000
	jb	.LBB53_51
# %bb.49:
	movq	-8(%rcx), %rbx
	addq	$-8, %rcx
	subq	%rbx, %rcx
	cmpq	$32, %rcx
	jae	.LBB53_53
# %bb.50:
	addq	$40, %rax
	movq	%rax, %rdx
	movq	%rbx, %rcx
.LBB53_51:
	callq	"??3@YAXPEAX_K@Z"
.LBB53_52:
	movq	%r12, %rax
	movaps	16(%rbp), %xmm6                 # 16-byte Reload
	addq	$168, %rsp
	popq	%rbx
	popq	%rdi
	popq	%rsi
	popq	%r12
	popq	%r13
	popq	%r14
	popq	%r15
	popq	%rbp
	retq
.LBB53_53:
.Ltmp196:
	callq	_invalid_parameter_noinfo_noreturn
.Ltmp197:
# %bb.54:
	int3
	.seh_handlerdata
	.long	("$cppxdata$?do_put@?$num_put@DV?$ostreambuf_iterator@DU?$char_traits@D@std@@@std@@@std@@MEBA?AV?$ostreambuf_iterator@DU?$char_traits@D@std@@@2@V32@AEAVios_base@2@DO@Z")@IMGREL
	.section	.text,"xr",discard,"?do_put@?$num_put@DV?$ostreambuf_iterator@DU?$char_traits@D@std@@@std@@@std@@MEBA?AV?$ostreambuf_iterator@DU?$char_traits@D@std@@@2@V32@AEAVios_base@2@DO@Z"
	.seh_endproc
	.def	"?dtor$55@?0??do_put@?$num_put@DV?$ostreambuf_iterator@DU?$char_traits@D@std@@@std@@@std@@MEBA?AV?$ostreambuf_iterator@DU?$char_traits@D@std@@@2@V32@AEAVios_base@2@DO@Z@4HA";
	.scl	3;
	.type	32;
	.endef
	.p2align	4, 0x90
"?dtor$55@?0??do_put@?$num_put@DV?$ostreambuf_iterator@DU?$char_traits@D@std@@@std@@@std@@MEBA?AV?$ostreambuf_iterator@DU?$char_traits@D@std@@@2@V32@AEAVios_base@2@DO@Z@4HA":
.seh_proc "?dtor$55@?0??do_put@?$num_put@DV?$ostreambuf_iterator@DU?$char_traits@D@std@@@std@@@std@@MEBA?AV?$ostreambuf_iterator@DU?$char_traits@D@std@@@2@V32@AEAVios_base@2@DO@Z@4HA"
.LBB53_55:
	movq	%rdx, 16(%rsp)
	pushq	%rbp
	.seh_pushreg %rbp
	pushq	%r15
	.seh_pushreg %r15
	pushq	%r14
	.seh_pushreg %r14
	pushq	%r13
	.seh_pushreg %r13
	pushq	%r12
	.seh_pushreg %r12
	pushq	%rsi
	.seh_pushreg %rsi
	pushq	%rdi
	.seh_pushreg %rdi
	pushq	%rbx
	.seh_pushreg %rbx
	subq	$72, %rsp
	.seh_stackalloc 72
	leaq	128(%rdx), %rbp
	movapd	%xmm6, 48(%rsp)                 # 16-byte Spill
	.seh_savexmm %xmm6, 48
	.seh_endprologue
	callq	__std_terminate
	int3
	.seh_handlerdata
	.section	.text,"xr",discard,"?do_put@?$num_put@DV?$ostreambuf_iterator@DU?$char_traits@D@std@@@std@@@std@@MEBA?AV?$ostreambuf_iterator@DU?$char_traits@D@std@@@2@V32@AEAVios_base@2@DO@Z"
	.seh_endproc
	.def	"?dtor$56@?0??do_put@?$num_put@DV?$ostreambuf_iterator@DU?$char_traits@D@std@@@std@@@std@@MEBA?AV?$ostreambuf_iterator@DU?$char_traits@D@std@@@2@V32@AEAVios_base@2@DO@Z@4HA";
	.scl	3;
	.type	32;
	.endef
	.p2align	4, 0x90
"?dtor$56@?0??do_put@?$num_put@DV?$ostreambuf_iterator@DU?$char_traits@D@std@@@std@@@std@@MEBA?AV?$ostreambuf_iterator@DU?$char_traits@D@std@@@2@V32@AEAVios_base@2@DO@Z@4HA":
.seh_proc "?dtor$56@?0??do_put@?$num_put@DV?$ostreambuf_iterator@DU?$char_traits@D@std@@@std@@@std@@MEBA?AV?$ostreambuf_iterator@DU?$char_traits@D@std@@@2@V32@AEAVios_base@2@DO@Z@4HA"
.LBB53_56:
	movq	%rdx, 16(%rsp)
	pushq	%rbp
	.seh_pushreg %rbp
	pushq	%r15
	.seh_pushreg %r15
	pushq	%r14
	.seh_pushreg %r14
	pushq	%r13
	.seh_pushreg %r13
	pushq	%r12
	.seh_pushreg %r12
	pushq	%rsi
	.seh_pushreg %rsi
	pushq	%rdi
	.seh_pushreg %rdi
	pushq	%rbx
	.seh_pushreg %rbx
	subq	$72, %rsp
	.seh_stackalloc 72
	leaq	128(%rdx), %rbp
	movapd	%xmm6, 48(%rsp)                 # 16-byte Spill
	.seh_savexmm %xmm6, 48
	.seh_endprologue
	leaq	-32(%rbp), %rcx
	callq	"??1?$basic_string@DU?$char_traits@D@std@@V?$allocator@D@2@@std@@QEAA@XZ"
	movaps	48(%rsp), %xmm6                 # 16-byte Reload
	addq	$72, %rsp
	popq	%rbx
	popq	%rdi
	popq	%rsi
	popq	%r12
	popq	%r13
	popq	%r14
	popq	%r15
	popq	%rbp
	retq                                    # CLEANUPRET
.Lfunc_end35:
	.seh_handlerdata
	.section	.text,"xr",discard,"?do_put@?$num_put@DV?$ostreambuf_iterator@DU?$char_traits@D@std@@@std@@@std@@MEBA?AV?$ostreambuf_iterator@DU?$char_traits@D@std@@@2@V32@AEAVios_base@2@DO@Z"
	.seh_endproc
	.section	.xdata,"dr",associative,"?do_put@?$num_put@DV?$ostreambuf_iterator@DU?$char_traits@D@std@@@std@@@std@@MEBA?AV?$ostreambuf_iterator@DU?$char_traits@D@std@@@2@V32@AEAVios_base@2@DO@Z"
	.p2align	2
"$cppxdata$?do_put@?$num_put@DV?$ostreambuf_iterator@DU?$char_traits@D@std@@@std@@@std@@MEBA?AV?$ostreambuf_iterator@DU?$char_traits@D@std@@@2@V32@AEAVios_base@2@DO@Z":
	.long	429065506                       # MagicNumber
	.long	2                               # MaxState
	.long	("$stateUnwindMap$?do_put@?$num_put@DV?$ostreambuf_iterator@DU?$char_traits@D@std@@@std@@@std@@MEBA?AV?$ostreambuf_iterator@DU?$char_traits@D@std@@@2@V32@AEAVios_base@2@DO@Z")@IMGREL # UnwindMap
	.long	0                               # NumTryBlocks
	.long	0                               # TryBlockMap
	.long	6                               # IPMapEntries
	.long	("$ip2state$?do_put@?$num_put@DV?$ostreambuf_iterator@DU?$char_traits@D@std@@@std@@@std@@MEBA?AV?$ostreambuf_iterator@DU?$char_traits@D@std@@@2@V32@AEAVios_base@2@DO@Z")@IMGREL # IPToStateXData
	.long	136                             # UnwindHelp
	.long	0                               # ESTypeList
	.long	1                               # EHFlags
"$stateUnwindMap$?do_put@?$num_put@DV?$ostreambuf_iterator@DU?$char_traits@D@std@@@std@@@std@@MEBA?AV?$ostreambuf_iterator@DU?$char_traits@D@std@@@2@V32@AEAVios_base@2@DO@Z":
	.long	-1                              # ToState
	.long	"?dtor$55@?0??do_put@?$num_put@DV?$ostreambuf_iterator@DU?$char_traits@D@std@@@std@@@std@@MEBA?AV?$ostreambuf_iterator@DU?$char_traits@D@std@@@2@V32@AEAVios_base@2@DO@Z@4HA"@IMGREL # Action
	.long	-1                              # ToState
	.long	"?dtor$56@?0??do_put@?$num_put@DV?$ostreambuf_iterator@DU?$char_traits@D@std@@@std@@@std@@MEBA?AV?$ostreambuf_iterator@DU?$char_traits@D@std@@@2@V32@AEAVios_base@2@DO@Z@4HA"@IMGREL # Action
"$ip2state$?do_put@?$num_put@DV?$ostreambuf_iterator@DU?$char_traits@D@std@@@std@@@std@@MEBA?AV?$ostreambuf_iterator@DU?$char_traits@D@std@@@2@V32@AEAVios_base@2@DO@Z":
	.long	.Lfunc_begin35@IMGREL           # IP
	.long	-1                              # ToState
	.long	.Ltmp190@IMGREL+1               # IP
	.long	1                               # ToState
	.long	.Ltmp191@IMGREL+1               # IP
	.long	-1                              # ToState
	.long	.Ltmp192@IMGREL+1               # IP
	.long	1                               # ToState
	.long	.Ltmp196@IMGREL+1               # IP
	.long	0                               # ToState
	.long	.Ltmp197@IMGREL+1               # IP
	.long	-1                              # ToState
	.section	.text,"xr",discard,"?do_put@?$num_put@DV?$ostreambuf_iterator@DU?$char_traits@D@std@@@std@@@std@@MEBA?AV?$ostreambuf_iterator@DU?$char_traits@D@std@@@2@V32@AEAVios_base@2@DO@Z"
                                        # -- End function
	.def	"?do_put@?$num_put@DV?$ostreambuf_iterator@DU?$char_traits@D@std@@@std@@@std@@MEBA?AV?$ostreambuf_iterator@DU?$char_traits@D@std@@@2@V32@AEAVios_base@2@DN@Z";
	.scl	2;
	.type	32;
	.endef
	.section	.text,"xr",discard,"?do_put@?$num_put@DV?$ostreambuf_iterator@DU?$char_traits@D@std@@@std@@@std@@MEBA?AV?$ostreambuf_iterator@DU?$char_traits@D@std@@@2@V32@AEAVios_base@2@DN@Z"
	.globl	"?do_put@?$num_put@DV?$ostreambuf_iterator@DU?$char_traits@D@std@@@std@@@std@@MEBA?AV?$ostreambuf_iterator@DU?$char_traits@D@std@@@2@V32@AEAVios_base@2@DN@Z" # -- Begin function ?do_put@?$num_put@DV?$ostreambuf_iterator@DU?$char_traits@D@std@@@std@@@std@@MEBA?AV?$ostreambuf_iterator@DU?$char_traits@D@std@@@2@V32@AEAVios_base@2@DN@Z
	.p2align	4, 0x90
"?do_put@?$num_put@DV?$ostreambuf_iterator@DU?$char_traits@D@std@@@std@@@std@@MEBA?AV?$ostreambuf_iterator@DU?$char_traits@D@std@@@2@V32@AEAVios_base@2@DN@Z": # @"?do_put@?$num_put@DV?$ostreambuf_iterator@DU?$char_traits@D@std@@@std@@@std@@MEBA?AV?$ostreambuf_iterator@DU?$char_traits@D@std@@@2@V32@AEAVios_base@2@DN@Z"
.Lfunc_begin36:
.seh_proc "?do_put@?$num_put@DV?$ostreambuf_iterator@DU?$char_traits@D@std@@@std@@@std@@MEBA?AV?$ostreambuf_iterator@DU?$char_traits@D@std@@@2@V32@AEAVios_base@2@DN@Z"
	.seh_handler __CxxFrameHandler3, @unwind, @except
# %bb.0:
	pushq	%rbp
	.seh_pushreg %rbp
	pushq	%r15
	.seh_pushreg %r15
	pushq	%r14
	.seh_pushreg %r14
	pushq	%r13
	.seh_pushreg %r13
	pushq	%r12
